
AVR_Project.elf:     file format elf32-avr

Sections:
Idx Name          Size      VMA       LMA       File off  Algn
  0 .text         000027d4  00000000  00000000  00000094  2**1
                  CONTENTS, ALLOC, LOAD, READONLY, CODE
  1 .data         00000086  00800060  000027d4  00002868  2**0
                  CONTENTS, ALLOC, LOAD, DATA
  2 .bss          0000003d  008000e6  008000e6  000028ee  2**0
                  ALLOC

Disassembly of section .text:

00000000 <__vectors>:
       0:	0c 94 2a 00 	jmp	0x54	; 0x54 <__ctors_end>
       4:	0c 94 86 05 	jmp	0xb0c	; 0xb0c <__vector_1>
       8:	0c 94 af 05 	jmp	0xb5e	; 0xb5e <__vector_2>
       c:	0c 94 d8 05 	jmp	0xbb0	; 0xbb0 <__vector_3>
      10:	0c 94 47 00 	jmp	0x8e	; 0x8e <__bad_interrupt>
      14:	0c 94 47 00 	jmp	0x8e	; 0x8e <__bad_interrupt>
      18:	0c 94 a7 03 	jmp	0x74e	; 0x74e <__vector_6>
      1c:	0c 94 55 03 	jmp	0x6aa	; 0x6aa <__vector_7>
      20:	0c 94 7e 03 	jmp	0x6fc	; 0x6fc <__vector_8>
      24:	0c 94 2c 03 	jmp	0x658	; 0x658 <__vector_9>
      28:	0c 94 47 00 	jmp	0x8e	; 0x8e <__bad_interrupt>
      2c:	0c 94 47 00 	jmp	0x8e	; 0x8e <__bad_interrupt>
      30:	0c 94 47 00 	jmp	0x8e	; 0x8e <__bad_interrupt>
      34:	0c 94 de 01 	jmp	0x3bc	; 0x3bc <__vector_13>
      38:	0c 94 30 02 	jmp	0x460	; 0x460 <__vector_14>
      3c:	0c 94 07 02 	jmp	0x40e	; 0x40e <__vector_15>
      40:	0c 94 47 00 	jmp	0x8e	; 0x8e <__bad_interrupt>
      44:	0c 94 47 00 	jmp	0x8e	; 0x8e <__bad_interrupt>
      48:	0c 94 47 00 	jmp	0x8e	; 0x8e <__bad_interrupt>
      4c:	0c 94 47 00 	jmp	0x8e	; 0x8e <__bad_interrupt>
      50:	0c 94 47 00 	jmp	0x8e	; 0x8e <__bad_interrupt>

00000054 <__ctors_end>:
      54:	11 24       	eor	r1, r1
      56:	1f be       	out	0x3f, r1	; 63
      58:	cf e5       	ldi	r28, 0x5F	; 95
      5a:	d8 e0       	ldi	r29, 0x08	; 8
      5c:	de bf       	out	0x3e, r29	; 62
      5e:	cd bf       	out	0x3d, r28	; 61

00000060 <__do_copy_data>:
      60:	10 e0       	ldi	r17, 0x00	; 0
      62:	a0 e6       	ldi	r26, 0x60	; 96
      64:	b0 e0       	ldi	r27, 0x00	; 0
      66:	e4 ed       	ldi	r30, 0xD4	; 212
      68:	f7 e2       	ldi	r31, 0x27	; 39
      6a:	02 c0       	rjmp	.+4      	; 0x70 <.do_copy_data_start>

0000006c <.do_copy_data_loop>:
      6c:	05 90       	lpm	r0, Z+
      6e:	0d 92       	st	X+, r0

00000070 <.do_copy_data_start>:
      70:	a6 3e       	cpi	r26, 0xE6	; 230
      72:	b1 07       	cpc	r27, r17
      74:	d9 f7       	brne	.-10     	; 0x6c <.do_copy_data_loop>

00000076 <__do_clear_bss>:
      76:	11 e0       	ldi	r17, 0x01	; 1
      78:	a6 ee       	ldi	r26, 0xE6	; 230
      7a:	b0 e0       	ldi	r27, 0x00	; 0
      7c:	01 c0       	rjmp	.+2      	; 0x80 <.do_clear_bss_start>

0000007e <.do_clear_bss_loop>:
      7e:	1d 92       	st	X+, r1

00000080 <.do_clear_bss_start>:
      80:	a3 32       	cpi	r26, 0x23	; 35
      82:	b1 07       	cpc	r27, r17
      84:	e1 f7       	brne	.-8      	; 0x7e <.do_clear_bss_loop>
      86:	0e 94 a3 10 	call	0x2146	; 0x2146 <main>
      8a:	0c 94 e8 13 	jmp	0x27d0	; 0x27d0 <_exit>

0000008e <__bad_interrupt>:
      8e:	0c 94 00 00 	jmp	0	; 0x0 <__vectors>

00000092 <SERVICE_TempControl>:
      92:	81 e0       	ldi	r24, 0x01	; 1
      94:	0e 94 95 08 	call	0x112a	; 0x112a <MCAL_ADC_READ>
      98:	a0 e0       	ldi	r26, 0x00	; 0
      9a:	b0 e0       	ldi	r27, 0x00	; 0
      9c:	bc 01       	movw	r22, r24
      9e:	cd 01       	movw	r24, r26
      a0:	0e 94 7a 0b 	call	0x16f4	; 0x16f4 <HAL_LM35_readTemp>
      a4:	80 e0       	ldi	r24, 0x00	; 0
      a6:	64 e0       	ldi	r22, 0x04	; 4
      a8:	0e 94 b4 0b 	call	0x1768	; 0x1768 <HAL_LED_OFF>
      ac:	08 95       	ret

000000ae <SERVICE_SET_ON_FLAG>:
      ae:	10 92 fb 00 	sts	0x00FB, r1
      b2:	81 e0       	ldi	r24, 0x01	; 1
      b4:	80 93 17 01 	sts	0x0117, r24
      b8:	0e 94 a4 00 	call	0x148	; 0x148 <SERVICE_EVERYTHING_ON>
      bc:	08 95       	ret

000000be <SERVICE_OPEN_DOOR>:
      be:	0e 94 fb 09 	call	0x13f6	; 0x13f6 <Login>
      c2:	89 2b       	or	r24, r25
      c4:	21 f4       	brne	.+8      	; 0xce <SERVICE_OPEN_DOOR+0x10>
      c6:	0e 94 ba 08 	call	0x1174	; 0x1174 <HAL_Solenoid_Open>
      ca:	0e 94 66 01 	call	0x2cc	; 0x2cc <SERVICE_Check_IR>
      ce:	08 95       	ret

000000d0 <lockHouse>:
      d0:	81 e0       	ldi	r24, 0x01	; 1
      d2:	80 93 fb 00 	sts	0x00FB, r24
      d6:	10 92 17 01 	sts	0x0117, r1
      da:	08 95       	ret

000000dc <SERVICE_LEDS_Control>:
      dc:	0f 93       	push	r16
      de:	1f 93       	push	r17
      e0:	df 93       	push	r29
      e2:	cf 93       	push	r28
      e4:	0f 92       	push	r0
      e6:	cd b7       	in	r28, 0x3d	; 61
      e8:	de b7       	in	r29, 0x3e	; 62
      ea:	0e 94 5b 0b 	call	0x16b6	; 0x16b6 <HAL_PIR_Init>
      ee:	0e 94 28 10 	call	0x2050	; 0x2050 <HAL_BUTTON_init>
      f2:	83 e0       	ldi	r24, 0x03	; 3
      f4:	0e 94 0f 05 	call	0xa1e	; 0xa1e <MCAL_EXT_INT_0_init>
      f8:	8b e9       	ldi	r24, 0x9B	; 155
      fa:	90 e0       	ldi	r25, 0x00	; 0
      fc:	60 e0       	ldi	r22, 0x00	; 0
      fe:	0e 94 69 05 	call	0xad2	; 0xad2 <MCAL_Ext_INT_setCallBack>
     102:	8e 01       	movw	r16, r28
     104:	0f 5f       	subi	r16, 0xFF	; 255
     106:	1f 4f       	sbci	r17, 0xFF	; 255
     108:	c8 01       	movw	r24, r16
     10a:	0e 94 13 10 	call	0x2026	; 0x2026 <HAL_BUTTON_read>
     10e:	89 81       	ldd	r24, Y+1	; 0x01
     110:	81 30       	cpi	r24, 0x01	; 1
     112:	59 f4       	brne	.+22     	; 0x12a <SERVICE_LEDS_Control+0x4e>
     114:	07 c0       	rjmp	.+14     	; 0x124 <SERVICE_LEDS_Control+0x48>
     116:	c8 01       	movw	r24, r16
     118:	0e 94 13 10 	call	0x2026	; 0x2026 <HAL_BUTTON_read>
     11c:	80 e0       	ldi	r24, 0x00	; 0
     11e:	60 e4       	ldi	r22, 0x40	; 64
     120:	0e 94 b4 0b 	call	0x1768	; 0x1768 <HAL_LED_OFF>
     124:	89 81       	ldd	r24, Y+1	; 0x01
     126:	81 30       	cpi	r24, 0x01	; 1
     128:	b1 f3       	breq	.-20     	; 0x116 <SERVICE_LEDS_Control+0x3a>
     12a:	0f 90       	pop	r0
     12c:	cf 91       	pop	r28
     12e:	df 91       	pop	r29
     130:	1f 91       	pop	r17
     132:	0f 91       	pop	r16
     134:	08 95       	ret

00000136 <func_ext_int_0.1349>:
     136:	80 e0       	ldi	r24, 0x00	; 0
     138:	60 e4       	ldi	r22, 0x40	; 64
     13a:	0e 94 dc 0b 	call	0x17b8	; 0x17b8 <HAL_LED_INIT>
     13e:	80 e0       	ldi	r24, 0x00	; 0
     140:	60 e4       	ldi	r22, 0x40	; 64
     142:	0e 94 c8 0b 	call	0x1790	; 0x1790 <HAL_LED_ON>
     146:	08 95       	ret

00000148 <SERVICE_EVERYTHING_ON>:
     148:	0a c0       	rjmp	.+20     	; 0x15e <SERVICE_EVERYTHING_ON+0x16>
     14a:	0e 94 49 00 	call	0x92	; 0x92 <SERVICE_TempControl>
     14e:	0e 94 5c 01 	call	0x2b8	; 0x2b8 <SERVICE_Curtain_Control>
     152:	0e 94 6e 00 	call	0xdc	; 0xdc <SERVICE_LEDS_Control>
     156:	80 e1       	ldi	r24, 0x10	; 16
     158:	91 e0       	ldi	r25, 0x01	; 1
     15a:	0e 94 b4 00 	call	0x168	; 0x168 <SERVICE_DisplayDateTime>
     15e:	80 91 fb 00 	lds	r24, 0x00FB
     162:	88 23       	and	r24, r24
     164:	91 f3       	breq	.-28     	; 0x14a <SERVICE_EVERYTHING_ON+0x2>
     166:	08 95       	ret

00000168 <SERVICE_DisplayDateTime>:
     168:	ef 92       	push	r14
     16a:	ff 92       	push	r15
     16c:	0f 93       	push	r16
     16e:	1f 93       	push	r17
     170:	df 93       	push	r29
     172:	cf 93       	push	r28
     174:	00 d0       	rcall	.+0      	; 0x176 <SERVICE_DisplayDateTime+0xe>
     176:	cd b7       	in	r28, 0x3d	; 61
     178:	de b7       	in	r29, 0x3e	; 62
     17a:	9a 83       	std	Y+2, r25	; 0x02
     17c:	89 83       	std	Y+1, r24	; 0x01
     17e:	7e 01       	movw	r14, r28
     180:	08 94       	sec
     182:	e1 1c       	adc	r14, r1
     184:	f1 1c       	adc	r15, r1
     186:	c7 01       	movw	r24, r14
     188:	0e 94 4a 09 	call	0x1294	; 0x1294 <HAL_RTC_ReadTime>
     18c:	80 e6       	ldi	r24, 0x60	; 96
     18e:	90 e0       	ldi	r25, 0x00	; 0
     190:	0e 94 d0 0c 	call	0x19a0	; 0x19a0 <HAL_LCD_sendString>
     194:	29 81       	ldd	r18, Y+1	; 0x01
     196:	3a 81       	ldd	r19, Y+2	; 0x02
     198:	8d b7       	in	r24, 0x3d	; 61
     19a:	9e b7       	in	r25, 0x3e	; 62
     19c:	0a 97       	sbiw	r24, 0x0a	; 10
     19e:	0f b6       	in	r0, 0x3f	; 63
     1a0:	f8 94       	cli
     1a2:	9e bf       	out	0x3e, r25	; 62
     1a4:	0f be       	out	0x3f, r0	; 63
     1a6:	8d bf       	out	0x3d, r24	; 61
     1a8:	ed b7       	in	r30, 0x3d	; 61
     1aa:	fe b7       	in	r31, 0x3e	; 62
     1ac:	31 96       	adiw	r30, 0x01	; 1
     1ae:	0c ef       	ldi	r16, 0xFC	; 252
     1b0:	10 e0       	ldi	r17, 0x00	; 0
     1b2:	ad b7       	in	r26, 0x3d	; 61
     1b4:	be b7       	in	r27, 0x3e	; 62
     1b6:	12 96       	adiw	r26, 0x02	; 2
     1b8:	1c 93       	st	X, r17
     1ba:	0e 93       	st	-X, r16
     1bc:	11 97       	sbiw	r26, 0x01	; 1
     1be:	84 e6       	ldi	r24, 0x64	; 100
     1c0:	90 e0       	ldi	r25, 0x00	; 0
     1c2:	93 83       	std	Z+3, r25	; 0x03
     1c4:	82 83       	std	Z+2, r24	; 0x02
     1c6:	d9 01       	movw	r26, r18
     1c8:	14 96       	adiw	r26, 0x04	; 4
     1ca:	8c 91       	ld	r24, X
     1cc:	14 97       	sbiw	r26, 0x04	; 4
     1ce:	84 83       	std	Z+4, r24	; 0x04
     1d0:	15 82       	std	Z+5, r1	; 0x05
     1d2:	15 96       	adiw	r26, 0x05	; 5
     1d4:	8c 91       	ld	r24, X
     1d6:	15 97       	sbiw	r26, 0x05	; 5
     1d8:	86 83       	std	Z+6, r24	; 0x06
     1da:	17 82       	std	Z+7, r1	; 0x07
     1dc:	16 96       	adiw	r26, 0x06	; 6
     1de:	8c 91       	ld	r24, X
     1e0:	80 87       	std	Z+8, r24	; 0x08
     1e2:	11 86       	std	Z+9, r1	; 0x09
     1e4:	0e 94 10 11 	call	0x2220	; 0x2220 <sprintf>
     1e8:	8d b7       	in	r24, 0x3d	; 61
     1ea:	9e b7       	in	r25, 0x3e	; 62
     1ec:	0a 96       	adiw	r24, 0x0a	; 10
     1ee:	0f b6       	in	r0, 0x3f	; 63
     1f0:	f8 94       	cli
     1f2:	9e bf       	out	0x3e, r25	; 62
     1f4:	0f be       	out	0x3f, r0	; 63
     1f6:	8d bf       	out	0x3d, r24	; 61
     1f8:	c8 01       	movw	r24, r16
     1fa:	60 e0       	ldi	r22, 0x00	; 0
     1fc:	40 e0       	ldi	r20, 0x00	; 0
     1fe:	0e 94 41 0e 	call	0x1c82	; 0x1c82 <HAL_LCD_displaystringRowColumn>
     202:	c7 01       	movw	r24, r14
     204:	0e 94 24 09 	call	0x1248	; 0x1248 <HAL_RTC_ReadDate>
     208:	29 81       	ldd	r18, Y+1	; 0x01
     20a:	3a 81       	ldd	r19, Y+2	; 0x02
     20c:	ad b7       	in	r26, 0x3d	; 61
     20e:	be b7       	in	r27, 0x3e	; 62
     210:	1a 97       	sbiw	r26, 0x0a	; 10
     212:	0f b6       	in	r0, 0x3f	; 63
     214:	f8 94       	cli
     216:	be bf       	out	0x3e, r27	; 62
     218:	0f be       	out	0x3f, r0	; 63
     21a:	ad bf       	out	0x3d, r26	; 61
     21c:	ed b7       	in	r30, 0x3d	; 61
     21e:	fe b7       	in	r31, 0x3e	; 62
     220:	31 96       	adiw	r30, 0x01	; 1
     222:	12 96       	adiw	r26, 0x02	; 2
     224:	1c 93       	st	X, r17
     226:	0e 93       	st	-X, r16
     228:	11 97       	sbiw	r26, 0x01	; 1
     22a:	85 e7       	ldi	r24, 0x75	; 117
     22c:	90 e0       	ldi	r25, 0x00	; 0
     22e:	93 83       	std	Z+3, r25	; 0x03
     230:	82 83       	std	Z+2, r24	; 0x02
     232:	d9 01       	movw	r26, r18
     234:	8c 91       	ld	r24, X
     236:	84 83       	std	Z+4, r24	; 0x04
     238:	15 82       	std	Z+5, r1	; 0x05
     23a:	11 96       	adiw	r26, 0x01	; 1
     23c:	8c 91       	ld	r24, X
     23e:	11 97       	sbiw	r26, 0x01	; 1
     240:	86 83       	std	Z+6, r24	; 0x06
     242:	17 82       	std	Z+7, r1	; 0x07
     244:	12 96       	adiw	r26, 0x02	; 2
     246:	8c 91       	ld	r24, X
     248:	80 87       	std	Z+8, r24	; 0x08
     24a:	11 86       	std	Z+9, r1	; 0x09
     24c:	0e 94 10 11 	call	0x2220	; 0x2220 <sprintf>
     250:	8d b7       	in	r24, 0x3d	; 61
     252:	9e b7       	in	r25, 0x3e	; 62
     254:	0a 96       	adiw	r24, 0x0a	; 10
     256:	0f b6       	in	r0, 0x3f	; 63
     258:	f8 94       	cli
     25a:	9e bf       	out	0x3e, r25	; 62
     25c:	0f be       	out	0x3f, r0	; 63
     25e:	8d bf       	out	0x3d, r24	; 61
     260:	c8 01       	movw	r24, r16
     262:	61 e0       	ldi	r22, 0x01	; 1
     264:	40 e0       	ldi	r20, 0x00	; 0
     266:	0e 94 41 0e 	call	0x1c82	; 0x1c82 <HAL_LCD_displaystringRowColumn>
     26a:	0f 90       	pop	r0
     26c:	0f 90       	pop	r0
     26e:	cf 91       	pop	r28
     270:	df 91       	pop	r29
     272:	1f 91       	pop	r17
     274:	0f 91       	pop	r16
     276:	ff 90       	pop	r15
     278:	ef 90       	pop	r14
     27a:	08 95       	ret

0000027c <SERVICE_Set_Flag>:
     27c:	80 91 ae 00 	lds	r24, 0x00AE
     280:	88 23       	and	r24, r24
     282:	21 f4       	brne	.+8      	; 0x28c <SERVICE_Set_Flag+0x10>
     284:	81 e0       	ldi	r24, 0x01	; 1
     286:	80 93 e6 00 	sts	0x00E6, r24
     28a:	08 95       	ret
     28c:	10 92 e6 00 	sts	0x00E6, r1
     290:	08 95       	ret

00000292 <Check_LDR>:
     292:	df 93       	push	r29
     294:	cf 93       	push	r28
     296:	0f 92       	push	r0
     298:	cd b7       	in	r28, 0x3d	; 61
     29a:	de b7       	in	r29, 0x3e	; 62
     29c:	ce 01       	movw	r24, r28
     29e:	01 96       	adiw	r24, 0x01	; 1
     2a0:	0e 94 f0 0b 	call	0x17e0	; 0x17e0 <HAL_LDR_Read>
     2a4:	90 e0       	ldi	r25, 0x00	; 0
     2a6:	89 81       	ldd	r24, Y+1	; 0x01
     2a8:	83 33       	cpi	r24, 0x33	; 51
     2aa:	08 f0       	brcs	.+2      	; 0x2ae <Check_LDR+0x1c>
     2ac:	91 e0       	ldi	r25, 0x01	; 1
     2ae:	89 2f       	mov	r24, r25
     2b0:	0f 90       	pop	r0
     2b2:	cf 91       	pop	r28
     2b4:	df 91       	pop	r29
     2b6:	08 95       	ret

000002b8 <SERVICE_Curtain_Control>:
     2b8:	0e 94 49 01 	call	0x292	; 0x292 <Check_LDR>
     2bc:	81 30       	cpi	r24, 0x01	; 1
     2be:	19 f4       	brne	.+6      	; 0x2c6 <SERVICE_Curtain_Control+0xe>
     2c0:	0e 94 0f 09 	call	0x121e	; 0x121e <HAL_SERVO_Write_CCW>
     2c4:	08 95       	ret
     2c6:	0e 94 13 09 	call	0x1226	; 0x1226 <HAL_SERVO_Write_CW>
     2ca:	08 95       	ret

000002cc <SERVICE_Check_IR>:
     2cc:	0e 94 bd 0f 	call	0x1f7a	; 0x1f7a <HAL_IR_Read>
     2d0:	80 93 1d 01 	sts	0x011D, r24
     2d4:	81 30       	cpi	r24, 0x01	; 1
     2d6:	31 f4       	brne	.+12     	; 0x2e4 <SERVICE_Check_IR+0x18>
     2d8:	80 e0       	ldi	r24, 0x00	; 0
     2da:	65 e0       	ldi	r22, 0x05	; 5
     2dc:	0e 94 c8 0b 	call	0x1790	; 0x1790 <HAL_LED_ON>
     2e0:	0e 94 57 00 	call	0xae	; 0xae <SERVICE_SET_ON_FLAG>
     2e4:	88 ee       	ldi	r24, 0xE8	; 232
     2e6:	93 e0       	ldi	r25, 0x03	; 3
     2e8:	20 e9       	ldi	r18, 0x90	; 144
     2ea:	31 e0       	ldi	r19, 0x01	; 1
     2ec:	f9 01       	movw	r30, r18
     2ee:	31 97       	sbiw	r30, 0x01	; 1
     2f0:	f1 f7       	brne	.-4      	; 0x2ee <SERVICE_Check_IR+0x22>
     2f2:	01 97       	sbiw	r24, 0x01	; 1
     2f4:	d9 f7       	brne	.-10     	; 0x2ec <SERVICE_Check_IR+0x20>
     2f6:	08 95       	ret

000002f8 <MCAL_UART_init>:
     2f8:	9b 01       	movw	r18, r22
     2fa:	ac 01       	movw	r20, r24
     2fc:	94 e0       	ldi	r25, 0x04	; 4
     2fe:	22 0f       	add	r18, r18
     300:	33 1f       	adc	r19, r19
     302:	44 1f       	adc	r20, r20
     304:	55 1f       	adc	r21, r21
     306:	9a 95       	dec	r25
     308:	d1 f7       	brne	.-12     	; 0x2fe <MCAL_UART_init+0x6>
     30a:	60 e0       	ldi	r22, 0x00	; 0
     30c:	74 e2       	ldi	r23, 0x24	; 36
     30e:	84 ef       	ldi	r24, 0xF4	; 244
     310:	90 e0       	ldi	r25, 0x00	; 0
     312:	0e 94 d3 10 	call	0x21a6	; 0x21a6 <__udivmodsi4>
     316:	21 50       	subi	r18, 0x01	; 1
     318:	30 40       	sbci	r19, 0x00	; 0
     31a:	40 40       	sbci	r20, 0x00	; 0
     31c:	50 40       	sbci	r21, 0x00	; 0
     31e:	80 b5       	in	r24, 0x20	; 32
     320:	8f 77       	andi	r24, 0x7F	; 127
     322:	80 bd       	out	0x20, r24	; 32
     324:	bb 27       	eor	r27, r27
     326:	a5 2f       	mov	r26, r21
     328:	94 2f       	mov	r25, r20
     32a:	83 2f       	mov	r24, r19
     32c:	80 bd       	out	0x20, r24	; 32
     32e:	29 b9       	out	0x09, r18	; 9
     330:	88 e1       	ldi	r24, 0x18	; 24
     332:	8a b9       	out	0x0a, r24	; 10
     334:	86 e8       	ldi	r24, 0x86	; 134
     336:	80 bd       	out	0x20, r24	; 32
     338:	80 e0       	ldi	r24, 0x00	; 0
     33a:	08 95       	ret

0000033c <MCAL_UART_send_sysch>:
     33c:	5d 9b       	sbis	0x0b, 5	; 11
     33e:	fe cf       	rjmp	.-4      	; 0x33c <MCAL_UART_send_sysch>
     340:	8c b9       	out	0x0c, r24	; 12
     342:	80 e0       	ldi	r24, 0x00	; 0
     344:	08 95       	ret

00000346 <MCAL_UART_TXC_Enable>:
     346:	56 9a       	sbi	0x0a, 6	; 10
     348:	78 94       	sei
     34a:	80 e0       	ldi	r24, 0x00	; 0
     34c:	08 95       	ret

0000034e <MCAL_UART_UDRE_Enable>:
     34e:	55 9a       	sbi	0x0a, 5	; 10
     350:	78 94       	sei
     352:	80 e0       	ldi	r24, 0x00	; 0
     354:	08 95       	ret

00000356 <MCAL_UART_send_str_sysch>:
     356:	20 e0       	ldi	r18, 0x00	; 0
     358:	04 c0       	rjmp	.+8      	; 0x362 <MCAL_UART_send_str_sysch+0xc>
     35a:	5d 9b       	sbis	0x0b, 5	; 11
     35c:	fe cf       	rjmp	.-4      	; 0x35a <MCAL_UART_send_str_sysch+0x4>
     35e:	ec b9       	out	0x0c, r30	; 12
     360:	2f 5f       	subi	r18, 0xFF	; 255
     362:	fc 01       	movw	r30, r24
     364:	e2 0f       	add	r30, r18
     366:	f1 1d       	adc	r31, r1
     368:	e0 81       	ld	r30, Z
     36a:	ee 23       	and	r30, r30
     36c:	b1 f7       	brne	.-20     	; 0x35a <MCAL_UART_send_str_sysch+0x4>
     36e:	80 e0       	ldi	r24, 0x00	; 0
     370:	08 95       	ret

00000372 <MCAL_UART_receive_sysch>:
     372:	5f 9b       	sbis	0x0b, 7	; 11
     374:	fe cf       	rjmp	.-4      	; 0x372 <MCAL_UART_receive_sysch>
     376:	8c b1       	in	r24, 0x0c	; 12
     378:	08 95       	ret

0000037a <MCAL_UART_RXC_Enable>:
     37a:	57 9a       	sbi	0x0a, 7	; 10
     37c:	78 94       	sei
     37e:	80 e0       	ldi	r24, 0x00	; 0
     380:	08 95       	ret

00000382 <MCAL_UART_setCAllBACK>:
     382:	61 30       	cpi	r22, 0x01	; 1
     384:	61 f0       	breq	.+24     	; 0x39e <MCAL_UART_setCAllBACK+0x1c>
     386:	61 30       	cpi	r22, 0x01	; 1
     388:	18 f0       	brcs	.+6      	; 0x390 <MCAL_UART_setCAllBACK+0xe>
     38a:	62 30       	cpi	r22, 0x02	; 2
     38c:	a9 f4       	brne	.+42     	; 0x3b8 <MCAL_UART_setCAllBACK+0x36>
     38e:	0e c0       	rjmp	.+28     	; 0x3ac <MCAL_UART_setCAllBACK+0x2a>
     390:	00 97       	sbiw	r24, 0x00	; 0
     392:	91 f0       	breq	.+36     	; 0x3b8 <MCAL_UART_setCAllBACK+0x36>
     394:	90 93 e8 00 	sts	0x00E8, r25
     398:	80 93 e7 00 	sts	0x00E7, r24
     39c:	0d c0       	rjmp	.+26     	; 0x3b8 <MCAL_UART_setCAllBACK+0x36>
     39e:	00 97       	sbiw	r24, 0x00	; 0
     3a0:	59 f0       	breq	.+22     	; 0x3b8 <MCAL_UART_setCAllBACK+0x36>
     3a2:	90 93 ea 00 	sts	0x00EA, r25
     3a6:	80 93 e9 00 	sts	0x00E9, r24
     3aa:	06 c0       	rjmp	.+12     	; 0x3b8 <MCAL_UART_setCAllBACK+0x36>
     3ac:	00 97       	sbiw	r24, 0x00	; 0
     3ae:	21 f0       	breq	.+8      	; 0x3b8 <MCAL_UART_setCAllBACK+0x36>
     3b0:	90 93 ec 00 	sts	0x00EC, r25
     3b4:	80 93 eb 00 	sts	0x00EB, r24
     3b8:	80 e0       	ldi	r24, 0x00	; 0
     3ba:	08 95       	ret

000003bc <__vector_13>:
     3bc:	1f 92       	push	r1
     3be:	0f 92       	push	r0
     3c0:	0f b6       	in	r0, 0x3f	; 63
     3c2:	0f 92       	push	r0
     3c4:	11 24       	eor	r1, r1
     3c6:	2f 93       	push	r18
     3c8:	3f 93       	push	r19
     3ca:	4f 93       	push	r20
     3cc:	5f 93       	push	r21
     3ce:	6f 93       	push	r22
     3d0:	7f 93       	push	r23
     3d2:	8f 93       	push	r24
     3d4:	9f 93       	push	r25
     3d6:	af 93       	push	r26
     3d8:	bf 93       	push	r27
     3da:	ef 93       	push	r30
     3dc:	ff 93       	push	r31
     3de:	e0 91 eb 00 	lds	r30, 0x00EB
     3e2:	f0 91 ec 00 	lds	r31, 0x00EC
     3e6:	30 97       	sbiw	r30, 0x00	; 0
     3e8:	09 f0       	breq	.+2      	; 0x3ec <__vector_13+0x30>
     3ea:	09 95       	icall
     3ec:	ff 91       	pop	r31
     3ee:	ef 91       	pop	r30
     3f0:	bf 91       	pop	r27
     3f2:	af 91       	pop	r26
     3f4:	9f 91       	pop	r25
     3f6:	8f 91       	pop	r24
     3f8:	7f 91       	pop	r23
     3fa:	6f 91       	pop	r22
     3fc:	5f 91       	pop	r21
     3fe:	4f 91       	pop	r20
     400:	3f 91       	pop	r19
     402:	2f 91       	pop	r18
     404:	0f 90       	pop	r0
     406:	0f be       	out	0x3f, r0	; 63
     408:	0f 90       	pop	r0
     40a:	1f 90       	pop	r1
     40c:	18 95       	reti

0000040e <__vector_15>:
     40e:	1f 92       	push	r1
     410:	0f 92       	push	r0
     412:	0f b6       	in	r0, 0x3f	; 63
     414:	0f 92       	push	r0
     416:	11 24       	eor	r1, r1
     418:	2f 93       	push	r18
     41a:	3f 93       	push	r19
     41c:	4f 93       	push	r20
     41e:	5f 93       	push	r21
     420:	6f 93       	push	r22
     422:	7f 93       	push	r23
     424:	8f 93       	push	r24
     426:	9f 93       	push	r25
     428:	af 93       	push	r26
     42a:	bf 93       	push	r27
     42c:	ef 93       	push	r30
     42e:	ff 93       	push	r31
     430:	e0 91 e9 00 	lds	r30, 0x00E9
     434:	f0 91 ea 00 	lds	r31, 0x00EA
     438:	30 97       	sbiw	r30, 0x00	; 0
     43a:	09 f0       	breq	.+2      	; 0x43e <__vector_15+0x30>
     43c:	09 95       	icall
     43e:	ff 91       	pop	r31
     440:	ef 91       	pop	r30
     442:	bf 91       	pop	r27
     444:	af 91       	pop	r26
     446:	9f 91       	pop	r25
     448:	8f 91       	pop	r24
     44a:	7f 91       	pop	r23
     44c:	6f 91       	pop	r22
     44e:	5f 91       	pop	r21
     450:	4f 91       	pop	r20
     452:	3f 91       	pop	r19
     454:	2f 91       	pop	r18
     456:	0f 90       	pop	r0
     458:	0f be       	out	0x3f, r0	; 63
     45a:	0f 90       	pop	r0
     45c:	1f 90       	pop	r1
     45e:	18 95       	reti

00000460 <__vector_14>:
     460:	1f 92       	push	r1
     462:	0f 92       	push	r0
     464:	0f b6       	in	r0, 0x3f	; 63
     466:	0f 92       	push	r0
     468:	11 24       	eor	r1, r1
     46a:	2f 93       	push	r18
     46c:	3f 93       	push	r19
     46e:	4f 93       	push	r20
     470:	5f 93       	push	r21
     472:	6f 93       	push	r22
     474:	7f 93       	push	r23
     476:	8f 93       	push	r24
     478:	9f 93       	push	r25
     47a:	af 93       	push	r26
     47c:	bf 93       	push	r27
     47e:	ef 93       	push	r30
     480:	ff 93       	push	r31
     482:	e0 91 e7 00 	lds	r30, 0x00E7
     486:	f0 91 e8 00 	lds	r31, 0x00E8
     48a:	30 97       	sbiw	r30, 0x00	; 0
     48c:	09 f0       	breq	.+2      	; 0x490 <__vector_14+0x30>
     48e:	09 95       	icall
     490:	ff 91       	pop	r31
     492:	ef 91       	pop	r30
     494:	bf 91       	pop	r27
     496:	af 91       	pop	r26
     498:	9f 91       	pop	r25
     49a:	8f 91       	pop	r24
     49c:	7f 91       	pop	r23
     49e:	6f 91       	pop	r22
     4a0:	5f 91       	pop	r21
     4a2:	4f 91       	pop	r20
     4a4:	3f 91       	pop	r19
     4a6:	2f 91       	pop	r18
     4a8:	0f 90       	pop	r0
     4aa:	0f be       	out	0x3f, r0	; 63
     4ac:	0f 90       	pop	r0
     4ae:	1f 90       	pop	r1
     4b0:	18 95       	reti

000004b2 <Timer1_Init>:
     4b2:	82 30       	cpi	r24, 0x02	; 2
     4b4:	e9 f0       	breq	.+58     	; 0x4f0 <Timer1_Init+0x3e>
     4b6:	83 30       	cpi	r24, 0x03	; 3
     4b8:	28 f4       	brcc	.+10     	; 0x4c4 <Timer1_Init+0x12>
     4ba:	88 23       	and	r24, r24
     4bc:	51 f0       	breq	.+20     	; 0x4d2 <Timer1_Init+0x20>
     4be:	81 30       	cpi	r24, 0x01	; 1
     4c0:	a9 f5       	brne	.+106    	; 0x52c <Timer1_Init+0x7a>
     4c2:	10 c0       	rjmp	.+32     	; 0x4e4 <Timer1_Init+0x32>
     4c4:	84 30       	cpi	r24, 0x04	; 4
     4c6:	31 f1       	breq	.+76     	; 0x514 <Timer1_Init+0x62>
     4c8:	84 30       	cpi	r24, 0x04	; 4
     4ca:	a8 f0       	brcs	.+42     	; 0x4f6 <Timer1_Init+0x44>
     4cc:	85 30       	cpi	r24, 0x05	; 5
     4ce:	71 f5       	brne	.+92     	; 0x52c <Timer1_Init+0x7a>
     4d0:	15 c0       	rjmp	.+42     	; 0x4fc <Timer1_Init+0x4a>
     4d2:	8f b5       	in	r24, 0x2f	; 47
     4d4:	8e 7f       	andi	r24, 0xFE	; 254
     4d6:	8f bd       	out	0x2f, r24	; 47
     4d8:	8f b5       	in	r24, 0x2f	; 47
     4da:	8d 7f       	andi	r24, 0xFD	; 253
     4dc:	8f bd       	out	0x2f, r24	; 47
     4de:	8e b5       	in	r24, 0x2e	; 46
     4e0:	87 7f       	andi	r24, 0xF7	; 247
     4e2:	14 c0       	rjmp	.+40     	; 0x50c <Timer1_Init+0x5a>
     4e4:	8f b5       	in	r24, 0x2f	; 47
     4e6:	8e 7f       	andi	r24, 0xFE	; 254
     4e8:	8f bd       	out	0x2f, r24	; 47
     4ea:	8f b5       	in	r24, 0x2f	; 47
     4ec:	8d 7f       	andi	r24, 0xFD	; 253
     4ee:	17 c0       	rjmp	.+46     	; 0x51e <Timer1_Init+0x6c>
     4f0:	8f b5       	in	r24, 0x2f	; 47
     4f2:	8e 7f       	andi	r24, 0xFE	; 254
     4f4:	05 c0       	rjmp	.+10     	; 0x500 <Timer1_Init+0x4e>
     4f6:	8f b5       	in	r24, 0x2f	; 47
     4f8:	8e 7f       	andi	r24, 0xFE	; 254
     4fa:	0e c0       	rjmp	.+28     	; 0x518 <Timer1_Init+0x66>
     4fc:	8f b5       	in	r24, 0x2f	; 47
     4fe:	81 60       	ori	r24, 0x01	; 1
     500:	8f bd       	out	0x2f, r24	; 47
     502:	8f b5       	in	r24, 0x2f	; 47
     504:	8d 7f       	andi	r24, 0xFD	; 253
     506:	8f bd       	out	0x2f, r24	; 47
     508:	8e b5       	in	r24, 0x2e	; 46
     50a:	88 60       	ori	r24, 0x08	; 8
     50c:	8e bd       	out	0x2e, r24	; 46
     50e:	8e b5       	in	r24, 0x2e	; 46
     510:	8f 7e       	andi	r24, 0xEF	; 239
     512:	0b c0       	rjmp	.+22     	; 0x52a <Timer1_Init+0x78>
     514:	8f b5       	in	r24, 0x2f	; 47
     516:	81 60       	ori	r24, 0x01	; 1
     518:	8f bd       	out	0x2f, r24	; 47
     51a:	8f b5       	in	r24, 0x2f	; 47
     51c:	82 60       	ori	r24, 0x02	; 2
     51e:	8f bd       	out	0x2f, r24	; 47
     520:	8e b5       	in	r24, 0x2e	; 46
     522:	88 60       	ori	r24, 0x08	; 8
     524:	8e bd       	out	0x2e, r24	; 46
     526:	8e b5       	in	r24, 0x2e	; 46
     528:	80 61       	ori	r24, 0x10	; 16
     52a:	8e bd       	out	0x2e, r24	; 46
     52c:	8e b5       	in	r24, 0x2e	; 46
     52e:	88 7f       	andi	r24, 0xF8	; 248
     530:	8e bd       	out	0x2e, r24	; 46
     532:	8e b5       	in	r24, 0x2e	; 46
     534:	86 2b       	or	r24, r22
     536:	8e bd       	out	0x2e, r24	; 46
     538:	80 e0       	ldi	r24, 0x00	; 0
     53a:	08 95       	ret

0000053c <Timer1_OCRA1Mode>:
     53c:	81 30       	cpi	r24, 0x01	; 1
     53e:	51 f0       	breq	.+20     	; 0x554 <Timer1_OCRA1Mode+0x18>
     540:	81 30       	cpi	r24, 0x01	; 1
     542:	28 f0       	brcs	.+10     	; 0x54e <Timer1_OCRA1Mode+0x12>
     544:	82 30       	cpi	r24, 0x02	; 2
     546:	61 f0       	breq	.+24     	; 0x560 <Timer1_OCRA1Mode+0x24>
     548:	83 30       	cpi	r24, 0x03	; 3
     54a:	99 f4       	brne	.+38     	; 0x572 <Timer1_OCRA1Mode+0x36>
     54c:	0c c0       	rjmp	.+24     	; 0x566 <Timer1_OCRA1Mode+0x2a>
     54e:	8f b5       	in	r24, 0x2f	; 47
     550:	8f 7b       	andi	r24, 0xBF	; 191
     552:	02 c0       	rjmp	.+4      	; 0x558 <Timer1_OCRA1Mode+0x1c>
     554:	8f b5       	in	r24, 0x2f	; 47
     556:	80 64       	ori	r24, 0x40	; 64
     558:	8f bd       	out	0x2f, r24	; 47
     55a:	8f b5       	in	r24, 0x2f	; 47
     55c:	8f 77       	andi	r24, 0x7F	; 127
     55e:	08 c0       	rjmp	.+16     	; 0x570 <Timer1_OCRA1Mode+0x34>
     560:	8f b5       	in	r24, 0x2f	; 47
     562:	8f 7b       	andi	r24, 0xBF	; 191
     564:	02 c0       	rjmp	.+4      	; 0x56a <Timer1_OCRA1Mode+0x2e>
     566:	8f b5       	in	r24, 0x2f	; 47
     568:	80 64       	ori	r24, 0x40	; 64
     56a:	8f bd       	out	0x2f, r24	; 47
     56c:	8f b5       	in	r24, 0x2f	; 47
     56e:	80 68       	ori	r24, 0x80	; 128
     570:	8f bd       	out	0x2f, r24	; 47
     572:	80 e0       	ldi	r24, 0x00	; 0
     574:	08 95       	ret

00000576 <Timer1_OCRB1Mode>:
     576:	81 30       	cpi	r24, 0x01	; 1
     578:	51 f0       	breq	.+20     	; 0x58e <Timer1_OCRB1Mode+0x18>
     57a:	81 30       	cpi	r24, 0x01	; 1
     57c:	28 f0       	brcs	.+10     	; 0x588 <Timer1_OCRB1Mode+0x12>
     57e:	82 30       	cpi	r24, 0x02	; 2
     580:	61 f0       	breq	.+24     	; 0x59a <Timer1_OCRB1Mode+0x24>
     582:	83 30       	cpi	r24, 0x03	; 3
     584:	99 f4       	brne	.+38     	; 0x5ac <Timer1_OCRB1Mode+0x36>
     586:	0c c0       	rjmp	.+24     	; 0x5a0 <Timer1_OCRB1Mode+0x2a>
     588:	8f b5       	in	r24, 0x2f	; 47
     58a:	8f 7e       	andi	r24, 0xEF	; 239
     58c:	02 c0       	rjmp	.+4      	; 0x592 <Timer1_OCRB1Mode+0x1c>
     58e:	8f b5       	in	r24, 0x2f	; 47
     590:	80 61       	ori	r24, 0x10	; 16
     592:	8f bd       	out	0x2f, r24	; 47
     594:	8f b5       	in	r24, 0x2f	; 47
     596:	8f 7d       	andi	r24, 0xDF	; 223
     598:	08 c0       	rjmp	.+16     	; 0x5aa <Timer1_OCRB1Mode+0x34>
     59a:	8f b5       	in	r24, 0x2f	; 47
     59c:	8f 7e       	andi	r24, 0xEF	; 239
     59e:	02 c0       	rjmp	.+4      	; 0x5a4 <Timer1_OCRB1Mode+0x2e>
     5a0:	8f b5       	in	r24, 0x2f	; 47
     5a2:	80 61       	ori	r24, 0x10	; 16
     5a4:	8f bd       	out	0x2f, r24	; 47
     5a6:	8f b5       	in	r24, 0x2f	; 47
     5a8:	80 62       	ori	r24, 0x20	; 32
     5aa:	8f bd       	out	0x2f, r24	; 47
     5ac:	80 e0       	ldi	r24, 0x00	; 0
     5ae:	08 95       	ret

000005b0 <Timer1_InputCaptureEdge>:
     5b0:	88 23       	and	r24, r24
     5b2:	19 f4       	brne	.+6      	; 0x5ba <Timer1_InputCaptureEdge+0xa>
     5b4:	8e b5       	in	r24, 0x2e	; 46
     5b6:	80 64       	ori	r24, 0x40	; 64
     5b8:	04 c0       	rjmp	.+8      	; 0x5c2 <Timer1_InputCaptureEdge+0x12>
     5ba:	81 30       	cpi	r24, 0x01	; 1
     5bc:	19 f4       	brne	.+6      	; 0x5c4 <Timer1_InputCaptureEdge+0x14>
     5be:	8e b5       	in	r24, 0x2e	; 46
     5c0:	8f 7b       	andi	r24, 0xBF	; 191
     5c2:	8e bd       	out	0x2e, r24	; 46
     5c4:	80 e0       	ldi	r24, 0x00	; 0
     5c6:	08 95       	ret

000005c8 <Timer1_ICU_InterruptEnable>:
     5c8:	89 b7       	in	r24, 0x39	; 57
     5ca:	80 62       	ori	r24, 0x20	; 32
     5cc:	89 bf       	out	0x39, r24	; 57
     5ce:	08 95       	ret

000005d0 <Timer1_ICU_InterruptDisable>:
     5d0:	89 b7       	in	r24, 0x39	; 57
     5d2:	8f 7d       	andi	r24, 0xDF	; 223
     5d4:	89 bf       	out	0x39, r24	; 57
     5d6:	08 95       	ret

000005d8 <Timer1_OVF_InterruptEnable>:
     5d8:	89 b7       	in	r24, 0x39	; 57
     5da:	84 60       	ori	r24, 0x04	; 4
     5dc:	89 bf       	out	0x39, r24	; 57
     5de:	08 95       	ret

000005e0 <Timer1_OVF_InterruptDisable>:
     5e0:	89 b7       	in	r24, 0x39	; 57
     5e2:	8b 7f       	andi	r24, 0xFB	; 251
     5e4:	89 bf       	out	0x39, r24	; 57
     5e6:	08 95       	ret

000005e8 <Timer1_OCA_InterruptEnable>:
     5e8:	89 b7       	in	r24, 0x39	; 57
     5ea:	80 61       	ori	r24, 0x10	; 16
     5ec:	89 bf       	out	0x39, r24	; 57
     5ee:	08 95       	ret

000005f0 <Timer1_OCA_InterruptDisable>:
     5f0:	89 b7       	in	r24, 0x39	; 57
     5f2:	8f 7e       	andi	r24, 0xEF	; 239
     5f4:	89 bf       	out	0x39, r24	; 57
     5f6:	08 95       	ret

000005f8 <Timer1_OCB_InterruptEnable>:
     5f8:	89 b7       	in	r24, 0x39	; 57
     5fa:	88 60       	ori	r24, 0x08	; 8
     5fc:	89 bf       	out	0x39, r24	; 57
     5fe:	08 95       	ret

00000600 <Timer1_OCB_InterruptDisable>:
     600:	89 b7       	in	r24, 0x39	; 57
     602:	87 7f       	andi	r24, 0xF7	; 247
     604:	89 bf       	out	0x39, r24	; 57
     606:	08 95       	ret

00000608 <Timer1_OVF_SetCallBack>:
     608:	00 97       	sbiw	r24, 0x00	; 0
     60a:	11 f4       	brne	.+4      	; 0x610 <Timer1_OVF_SetCallBack+0x8>
     60c:	82 e0       	ldi	r24, 0x02	; 2
     60e:	08 95       	ret
     610:	90 93 f4 00 	sts	0x00F4, r25
     614:	80 93 f3 00 	sts	0x00F3, r24
     618:	80 e0       	ldi	r24, 0x00	; 0
     61a:	08 95       	ret

0000061c <Timer1_OCA_SetCallBack>:
     61c:	00 97       	sbiw	r24, 0x00	; 0
     61e:	11 f4       	brne	.+4      	; 0x624 <Timer1_OCA_SetCallBack+0x8>
     620:	82 e0       	ldi	r24, 0x02	; 2
     622:	08 95       	ret
     624:	90 93 f2 00 	sts	0x00F2, r25
     628:	80 93 f1 00 	sts	0x00F1, r24
     62c:	80 e0       	ldi	r24, 0x00	; 0
     62e:	08 95       	ret

00000630 <Timer1_OCB_SetCallBack>:
     630:	00 97       	sbiw	r24, 0x00	; 0
     632:	11 f4       	brne	.+4      	; 0x638 <Timer1_OCB_SetCallBack+0x8>
     634:	82 e0       	ldi	r24, 0x02	; 2
     636:	08 95       	ret
     638:	90 93 f0 00 	sts	0x00F0, r25
     63c:	80 93 ef 00 	sts	0x00EF, r24
     640:	80 e0       	ldi	r24, 0x00	; 0
     642:	08 95       	ret

00000644 <Timer1_ICU_SetCallBack>:
     644:	00 97       	sbiw	r24, 0x00	; 0
     646:	11 f4       	brne	.+4      	; 0x64c <Timer1_ICU_SetCallBack+0x8>
     648:	82 e0       	ldi	r24, 0x02	; 2
     64a:	08 95       	ret
     64c:	90 93 ee 00 	sts	0x00EE, r25
     650:	80 93 ed 00 	sts	0x00ED, r24
     654:	80 e0       	ldi	r24, 0x00	; 0
     656:	08 95       	ret

00000658 <__vector_9>:
     658:	1f 92       	push	r1
     65a:	0f 92       	push	r0
     65c:	0f b6       	in	r0, 0x3f	; 63
     65e:	0f 92       	push	r0
     660:	11 24       	eor	r1, r1
     662:	2f 93       	push	r18
     664:	3f 93       	push	r19
     666:	4f 93       	push	r20
     668:	5f 93       	push	r21
     66a:	6f 93       	push	r22
     66c:	7f 93       	push	r23
     66e:	8f 93       	push	r24
     670:	9f 93       	push	r25
     672:	af 93       	push	r26
     674:	bf 93       	push	r27
     676:	ef 93       	push	r30
     678:	ff 93       	push	r31
     67a:	e0 91 f3 00 	lds	r30, 0x00F3
     67e:	f0 91 f4 00 	lds	r31, 0x00F4
     682:	30 97       	sbiw	r30, 0x00	; 0
     684:	09 f0       	breq	.+2      	; 0x688 <__vector_9+0x30>
     686:	09 95       	icall
     688:	ff 91       	pop	r31
     68a:	ef 91       	pop	r30
     68c:	bf 91       	pop	r27
     68e:	af 91       	pop	r26
     690:	9f 91       	pop	r25
     692:	8f 91       	pop	r24
     694:	7f 91       	pop	r23
     696:	6f 91       	pop	r22
     698:	5f 91       	pop	r21
     69a:	4f 91       	pop	r20
     69c:	3f 91       	pop	r19
     69e:	2f 91       	pop	r18
     6a0:	0f 90       	pop	r0
     6a2:	0f be       	out	0x3f, r0	; 63
     6a4:	0f 90       	pop	r0
     6a6:	1f 90       	pop	r1
     6a8:	18 95       	reti

000006aa <__vector_7>:
     6aa:	1f 92       	push	r1
     6ac:	0f 92       	push	r0
     6ae:	0f b6       	in	r0, 0x3f	; 63
     6b0:	0f 92       	push	r0
     6b2:	11 24       	eor	r1, r1
     6b4:	2f 93       	push	r18
     6b6:	3f 93       	push	r19
     6b8:	4f 93       	push	r20
     6ba:	5f 93       	push	r21
     6bc:	6f 93       	push	r22
     6be:	7f 93       	push	r23
     6c0:	8f 93       	push	r24
     6c2:	9f 93       	push	r25
     6c4:	af 93       	push	r26
     6c6:	bf 93       	push	r27
     6c8:	ef 93       	push	r30
     6ca:	ff 93       	push	r31
     6cc:	e0 91 f1 00 	lds	r30, 0x00F1
     6d0:	f0 91 f2 00 	lds	r31, 0x00F2
     6d4:	30 97       	sbiw	r30, 0x00	; 0
     6d6:	09 f0       	breq	.+2      	; 0x6da <__vector_7+0x30>
     6d8:	09 95       	icall
     6da:	ff 91       	pop	r31
     6dc:	ef 91       	pop	r30
     6de:	bf 91       	pop	r27
     6e0:	af 91       	pop	r26
     6e2:	9f 91       	pop	r25
     6e4:	8f 91       	pop	r24
     6e6:	7f 91       	pop	r23
     6e8:	6f 91       	pop	r22
     6ea:	5f 91       	pop	r21
     6ec:	4f 91       	pop	r20
     6ee:	3f 91       	pop	r19
     6f0:	2f 91       	pop	r18
     6f2:	0f 90       	pop	r0
     6f4:	0f be       	out	0x3f, r0	; 63
     6f6:	0f 90       	pop	r0
     6f8:	1f 90       	pop	r1
     6fa:	18 95       	reti

000006fc <__vector_8>:
     6fc:	1f 92       	push	r1
     6fe:	0f 92       	push	r0
     700:	0f b6       	in	r0, 0x3f	; 63
     702:	0f 92       	push	r0
     704:	11 24       	eor	r1, r1
     706:	2f 93       	push	r18
     708:	3f 93       	push	r19
     70a:	4f 93       	push	r20
     70c:	5f 93       	push	r21
     70e:	6f 93       	push	r22
     710:	7f 93       	push	r23
     712:	8f 93       	push	r24
     714:	9f 93       	push	r25
     716:	af 93       	push	r26
     718:	bf 93       	push	r27
     71a:	ef 93       	push	r30
     71c:	ff 93       	push	r31
     71e:	e0 91 ef 00 	lds	r30, 0x00EF
     722:	f0 91 f0 00 	lds	r31, 0x00F0
     726:	30 97       	sbiw	r30, 0x00	; 0
     728:	09 f0       	breq	.+2      	; 0x72c <__vector_8+0x30>
     72a:	09 95       	icall
     72c:	ff 91       	pop	r31
     72e:	ef 91       	pop	r30
     730:	bf 91       	pop	r27
     732:	af 91       	pop	r26
     734:	9f 91       	pop	r25
     736:	8f 91       	pop	r24
     738:	7f 91       	pop	r23
     73a:	6f 91       	pop	r22
     73c:	5f 91       	pop	r21
     73e:	4f 91       	pop	r20
     740:	3f 91       	pop	r19
     742:	2f 91       	pop	r18
     744:	0f 90       	pop	r0
     746:	0f be       	out	0x3f, r0	; 63
     748:	0f 90       	pop	r0
     74a:	1f 90       	pop	r1
     74c:	18 95       	reti

0000074e <__vector_6>:
     74e:	1f 92       	push	r1
     750:	0f 92       	push	r0
     752:	0f b6       	in	r0, 0x3f	; 63
     754:	0f 92       	push	r0
     756:	11 24       	eor	r1, r1
     758:	2f 93       	push	r18
     75a:	3f 93       	push	r19
     75c:	4f 93       	push	r20
     75e:	5f 93       	push	r21
     760:	6f 93       	push	r22
     762:	7f 93       	push	r23
     764:	8f 93       	push	r24
     766:	9f 93       	push	r25
     768:	af 93       	push	r26
     76a:	bf 93       	push	r27
     76c:	ef 93       	push	r30
     76e:	ff 93       	push	r31
     770:	e0 91 ed 00 	lds	r30, 0x00ED
     774:	f0 91 ee 00 	lds	r31, 0x00EE
     778:	30 97       	sbiw	r30, 0x00	; 0
     77a:	09 f0       	breq	.+2      	; 0x77e <__vector_6+0x30>
     77c:	09 95       	icall
     77e:	ff 91       	pop	r31
     780:	ef 91       	pop	r30
     782:	bf 91       	pop	r27
     784:	af 91       	pop	r26
     786:	9f 91       	pop	r25
     788:	8f 91       	pop	r24
     78a:	7f 91       	pop	r23
     78c:	6f 91       	pop	r22
     78e:	5f 91       	pop	r21
     790:	4f 91       	pop	r20
     792:	3f 91       	pop	r19
     794:	2f 91       	pop	r18
     796:	0f 90       	pop	r0
     798:	0f be       	out	0x3f, r0	; 63
     79a:	0f 90       	pop	r0
     79c:	1f 90       	pop	r1
     79e:	18 95       	reti

000007a0 <MCAL_Timer0_OVF_Init>:
     7a0:	98 2f       	mov	r25, r24
     7a2:	12 be       	out	0x32, r1	; 50
     7a4:	83 b7       	in	r24, 0x33	; 51
     7a6:	80 68       	ori	r24, 0x80	; 128
     7a8:	83 bf       	out	0x33, r24	; 51
     7aa:	91 30       	cpi	r25, 0x01	; 1
     7ac:	51 f0       	breq	.+20     	; 0x7c2 <MCAL_Timer0_OVF_Init+0x22>
     7ae:	91 30       	cpi	r25, 0x01	; 1
     7b0:	28 f0       	brcs	.+10     	; 0x7bc <MCAL_Timer0_OVF_Init+0x1c>
     7b2:	92 30       	cpi	r25, 0x02	; 2
     7b4:	79 f0       	breq	.+30     	; 0x7d4 <MCAL_Timer0_OVF_Init+0x34>
     7b6:	93 30       	cpi	r25, 0x03	; 3
     7b8:	81 f4       	brne	.+32     	; 0x7da <MCAL_Timer0_OVF_Init+0x3a>
     7ba:	09 c0       	rjmp	.+18     	; 0x7ce <MCAL_Timer0_OVF_Init+0x2e>
     7bc:	83 b7       	in	r24, 0x33	; 51
     7be:	81 60       	ori	r24, 0x01	; 1
     7c0:	0b c0       	rjmp	.+22     	; 0x7d8 <MCAL_Timer0_OVF_Init+0x38>
     7c2:	83 b7       	in	r24, 0x33	; 51
     7c4:	81 60       	ori	r24, 0x01	; 1
     7c6:	83 bf       	out	0x33, r24	; 51
     7c8:	83 b7       	in	r24, 0x33	; 51
     7ca:	82 60       	ori	r24, 0x02	; 2
     7cc:	05 c0       	rjmp	.+10     	; 0x7d8 <MCAL_Timer0_OVF_Init+0x38>
     7ce:	83 b7       	in	r24, 0x33	; 51
     7d0:	81 60       	ori	r24, 0x01	; 1
     7d2:	83 bf       	out	0x33, r24	; 51
     7d4:	83 b7       	in	r24, 0x33	; 51
     7d6:	84 60       	ori	r24, 0x04	; 4
     7d8:	83 bf       	out	0x33, r24	; 51
     7da:	89 b7       	in	r24, 0x39	; 57
     7dc:	81 60       	ori	r24, 0x01	; 1
     7de:	89 bf       	out	0x39, r24	; 57
     7e0:	80 e0       	ldi	r24, 0x00	; 0
     7e2:	08 95       	ret

000007e4 <MCAL_Timer0_CTC_Init>:
     7e4:	98 2f       	mov	r25, r24
     7e6:	12 be       	out	0x32, r1	; 50
     7e8:	6c bf       	out	0x3c, r22	; 60
     7ea:	83 b7       	in	r24, 0x33	; 51
     7ec:	80 68       	ori	r24, 0x80	; 128
     7ee:	83 bf       	out	0x33, r24	; 51
     7f0:	83 b7       	in	r24, 0x33	; 51
     7f2:	88 60       	ori	r24, 0x08	; 8
     7f4:	83 bf       	out	0x33, r24	; 51
     7f6:	91 30       	cpi	r25, 0x01	; 1
     7f8:	51 f0       	breq	.+20     	; 0x80e <MCAL_Timer0_CTC_Init+0x2a>
     7fa:	91 30       	cpi	r25, 0x01	; 1
     7fc:	28 f0       	brcs	.+10     	; 0x808 <MCAL_Timer0_CTC_Init+0x24>
     7fe:	92 30       	cpi	r25, 0x02	; 2
     800:	79 f0       	breq	.+30     	; 0x820 <MCAL_Timer0_CTC_Init+0x3c>
     802:	93 30       	cpi	r25, 0x03	; 3
     804:	81 f4       	brne	.+32     	; 0x826 <MCAL_Timer0_CTC_Init+0x42>
     806:	09 c0       	rjmp	.+18     	; 0x81a <MCAL_Timer0_CTC_Init+0x36>
     808:	83 b7       	in	r24, 0x33	; 51
     80a:	81 60       	ori	r24, 0x01	; 1
     80c:	0b c0       	rjmp	.+22     	; 0x824 <MCAL_Timer0_CTC_Init+0x40>
     80e:	83 b7       	in	r24, 0x33	; 51
     810:	81 60       	ori	r24, 0x01	; 1
     812:	83 bf       	out	0x33, r24	; 51
     814:	83 b7       	in	r24, 0x33	; 51
     816:	82 60       	ori	r24, 0x02	; 2
     818:	05 c0       	rjmp	.+10     	; 0x824 <MCAL_Timer0_CTC_Init+0x40>
     81a:	83 b7       	in	r24, 0x33	; 51
     81c:	81 60       	ori	r24, 0x01	; 1
     81e:	83 bf       	out	0x33, r24	; 51
     820:	83 b7       	in	r24, 0x33	; 51
     822:	84 60       	ori	r24, 0x04	; 4
     824:	83 bf       	out	0x33, r24	; 51
     826:	89 b7       	in	r24, 0x39	; 57
     828:	82 60       	ori	r24, 0x02	; 2
     82a:	89 bf       	out	0x39, r24	; 57
     82c:	80 e0       	ldi	r24, 0x00	; 0
     82e:	08 95       	ret

00000830 <MCAL_Timer0_FastPWM_Init>:
     830:	98 2f       	mov	r25, r24
     832:	12 be       	out	0x32, r1	; 50
     834:	6c bf       	out	0x3c, r22	; 60
     836:	bb 9a       	sbi	0x17, 3	; 23
     838:	83 b7       	in	r24, 0x33	; 51
     83a:	80 64       	ori	r24, 0x40	; 64
     83c:	83 bf       	out	0x33, r24	; 51
     83e:	83 b7       	in	r24, 0x33	; 51
     840:	82 60       	ori	r24, 0x02	; 2
     842:	83 bf       	out	0x33, r24	; 51
     844:	83 b7       	in	r24, 0x33	; 51
     846:	80 62       	ori	r24, 0x20	; 32
     848:	83 bf       	out	0x33, r24	; 51
     84a:	91 30       	cpi	r25, 0x01	; 1
     84c:	51 f0       	breq	.+20     	; 0x862 <__stack+0x3>
     84e:	91 30       	cpi	r25, 0x01	; 1
     850:	28 f0       	brcs	.+10     	; 0x85c <MCAL_Timer0_FastPWM_Init+0x2c>
     852:	92 30       	cpi	r25, 0x02	; 2
     854:	79 f0       	breq	.+30     	; 0x874 <__stack+0x15>
     856:	93 30       	cpi	r25, 0x03	; 3
     858:	81 f4       	brne	.+32     	; 0x87a <__stack+0x1b>
     85a:	09 c0       	rjmp	.+18     	; 0x86e <__stack+0xf>
     85c:	83 b7       	in	r24, 0x33	; 51
     85e:	81 60       	ori	r24, 0x01	; 1
     860:	0b c0       	rjmp	.+22     	; 0x878 <__stack+0x19>
     862:	83 b7       	in	r24, 0x33	; 51
     864:	81 60       	ori	r24, 0x01	; 1
     866:	83 bf       	out	0x33, r24	; 51
     868:	83 b7       	in	r24, 0x33	; 51
     86a:	82 60       	ori	r24, 0x02	; 2
     86c:	05 c0       	rjmp	.+10     	; 0x878 <__stack+0x19>
     86e:	83 b7       	in	r24, 0x33	; 51
     870:	81 60       	ori	r24, 0x01	; 1
     872:	83 bf       	out	0x33, r24	; 51
     874:	83 b7       	in	r24, 0x33	; 51
     876:	84 60       	ori	r24, 0x04	; 4
     878:	83 bf       	out	0x33, r24	; 51
     87a:	80 e0       	ldi	r24, 0x00	; 0
     87c:	08 95       	ret

0000087e <MCAL_Timer0_PCPWM_Init>:
     87e:	98 2f       	mov	r25, r24
     880:	12 be       	out	0x32, r1	; 50
     882:	6c bf       	out	0x3c, r22	; 60
     884:	bb 9a       	sbi	0x17, 3	; 23
     886:	83 b7       	in	r24, 0x33	; 51
     888:	80 64       	ori	r24, 0x40	; 64
     88a:	83 bf       	out	0x33, r24	; 51
     88c:	83 b7       	in	r24, 0x33	; 51
     88e:	80 62       	ori	r24, 0x20	; 32
     890:	83 bf       	out	0x33, r24	; 51
     892:	91 30       	cpi	r25, 0x01	; 1
     894:	51 f0       	breq	.+20     	; 0x8aa <MCAL_Timer0_PCPWM_Init+0x2c>
     896:	91 30       	cpi	r25, 0x01	; 1
     898:	28 f0       	brcs	.+10     	; 0x8a4 <MCAL_Timer0_PCPWM_Init+0x26>
     89a:	92 30       	cpi	r25, 0x02	; 2
     89c:	79 f0       	breq	.+30     	; 0x8bc <MCAL_Timer0_PCPWM_Init+0x3e>
     89e:	93 30       	cpi	r25, 0x03	; 3
     8a0:	81 f4       	brne	.+32     	; 0x8c2 <MCAL_Timer0_PCPWM_Init+0x44>
     8a2:	09 c0       	rjmp	.+18     	; 0x8b6 <MCAL_Timer0_PCPWM_Init+0x38>
     8a4:	83 b7       	in	r24, 0x33	; 51
     8a6:	81 60       	ori	r24, 0x01	; 1
     8a8:	0b c0       	rjmp	.+22     	; 0x8c0 <MCAL_Timer0_PCPWM_Init+0x42>
     8aa:	83 b7       	in	r24, 0x33	; 51
     8ac:	81 60       	ori	r24, 0x01	; 1
     8ae:	83 bf       	out	0x33, r24	; 51
     8b0:	83 b7       	in	r24, 0x33	; 51
     8b2:	82 60       	ori	r24, 0x02	; 2
     8b4:	05 c0       	rjmp	.+10     	; 0x8c0 <MCAL_Timer0_PCPWM_Init+0x42>
     8b6:	83 b7       	in	r24, 0x33	; 51
     8b8:	81 60       	ori	r24, 0x01	; 1
     8ba:	83 bf       	out	0x33, r24	; 51
     8bc:	83 b7       	in	r24, 0x33	; 51
     8be:	84 60       	ori	r24, 0x04	; 4
     8c0:	83 bf       	out	0x33, r24	; 51
     8c2:	80 e0       	ldi	r24, 0x00	; 0
     8c4:	08 95       	ret

000008c6 <I2C_Init>:
     8c6:	11 b8       	out	0x01, r1	; 1
     8c8:	88 e4       	ldi	r24, 0x48	; 72
     8ca:	80 b9       	out	0x00, r24	; 0
     8cc:	08 95       	ret

000008ce <I2C_Start>:
     8ce:	98 2f       	mov	r25, r24
     8d0:	84 ea       	ldi	r24, 0xA4	; 164
     8d2:	86 bf       	out	0x36, r24	; 54
     8d4:	06 b6       	in	r0, 0x36	; 54
     8d6:	07 fe       	sbrs	r0, 7
     8d8:	fd cf       	rjmp	.-6      	; 0x8d4 <I2C_Start+0x6>
     8da:	81 b1       	in	r24, 0x01	; 1
     8dc:	88 7f       	andi	r24, 0xF8	; 248
     8de:	88 30       	cpi	r24, 0x08	; 8
     8e0:	11 f0       	breq	.+4      	; 0x8e6 <I2C_Start+0x18>
     8e2:	80 e0       	ldi	r24, 0x00	; 0
     8e4:	08 95       	ret
     8e6:	93 b9       	out	0x03, r25	; 3
     8e8:	84 e8       	ldi	r24, 0x84	; 132
     8ea:	86 bf       	out	0x36, r24	; 54
     8ec:	06 b6       	in	r0, 0x36	; 54
     8ee:	07 fe       	sbrs	r0, 7
     8f0:	fd cf       	rjmp	.-6      	; 0x8ec <I2C_Start+0x1e>
     8f2:	81 b1       	in	r24, 0x01	; 1
     8f4:	88 7f       	andi	r24, 0xF8	; 248
     8f6:	88 31       	cpi	r24, 0x18	; 24
     8f8:	11 f4       	brne	.+4      	; 0x8fe <I2C_Start+0x30>
     8fa:	81 e0       	ldi	r24, 0x01	; 1
     8fc:	08 95       	ret
     8fe:	80 32       	cpi	r24, 0x20	; 32
     900:	11 f0       	breq	.+4      	; 0x906 <I2C_Start+0x38>
     902:	83 e0       	ldi	r24, 0x03	; 3
     904:	08 95       	ret
     906:	82 e0       	ldi	r24, 0x02	; 2
     908:	08 95       	ret

0000090a <I2C_Repeated_Start>:
     90a:	98 2f       	mov	r25, r24
     90c:	84 ea       	ldi	r24, 0xA4	; 164
     90e:	86 bf       	out	0x36, r24	; 54
     910:	06 b6       	in	r0, 0x36	; 54
     912:	07 fe       	sbrs	r0, 7
     914:	fd cf       	rjmp	.-6      	; 0x910 <I2C_Repeated_Start+0x6>
     916:	81 b1       	in	r24, 0x01	; 1
     918:	88 7f       	andi	r24, 0xF8	; 248
     91a:	80 31       	cpi	r24, 0x10	; 16
     91c:	11 f0       	breq	.+4      	; 0x922 <I2C_Repeated_Start+0x18>
     91e:	80 e0       	ldi	r24, 0x00	; 0
     920:	08 95       	ret
     922:	93 b9       	out	0x03, r25	; 3
     924:	84 e8       	ldi	r24, 0x84	; 132
     926:	86 bf       	out	0x36, r24	; 54
     928:	06 b6       	in	r0, 0x36	; 54
     92a:	07 fe       	sbrs	r0, 7
     92c:	fd cf       	rjmp	.-6      	; 0x928 <I2C_Repeated_Start+0x1e>
     92e:	81 b1       	in	r24, 0x01	; 1
     930:	88 7f       	andi	r24, 0xF8	; 248
     932:	80 34       	cpi	r24, 0x40	; 64
     934:	11 f4       	brne	.+4      	; 0x93a <I2C_Repeated_Start+0x30>
     936:	81 e0       	ldi	r24, 0x01	; 1
     938:	08 95       	ret
     93a:	80 32       	cpi	r24, 0x20	; 32
     93c:	11 f0       	breq	.+4      	; 0x942 <I2C_Repeated_Start+0x38>
     93e:	83 e0       	ldi	r24, 0x03	; 3
     940:	08 95       	ret
     942:	82 e0       	ldi	r24, 0x02	; 2
     944:	08 95       	ret

00000946 <I2C_Stop>:
     946:	84 e9       	ldi	r24, 0x94	; 148
     948:	86 bf       	out	0x36, r24	; 54
     94a:	06 b6       	in	r0, 0x36	; 54
     94c:	04 fc       	sbrc	r0, 4
     94e:	fd cf       	rjmp	.-6      	; 0x94a <I2C_Stop+0x4>
     950:	08 95       	ret

00000952 <I2C_Start_Wait>:
     952:	98 2f       	mov	r25, r24
     954:	44 ea       	ldi	r20, 0xA4	; 164
     956:	34 e8       	ldi	r19, 0x84	; 132
     958:	24 e9       	ldi	r18, 0x94	; 148
     95a:	46 bf       	out	0x36, r20	; 54
     95c:	06 b6       	in	r0, 0x36	; 54
     95e:	07 fe       	sbrs	r0, 7
     960:	fd cf       	rjmp	.-6      	; 0x95c <I2C_Start_Wait+0xa>
     962:	81 b1       	in	r24, 0x01	; 1
     964:	88 7f       	andi	r24, 0xF8	; 248
     966:	88 30       	cpi	r24, 0x08	; 8
     968:	c1 f7       	brne	.-16     	; 0x95a <I2C_Start_Wait+0x8>
     96a:	93 b9       	out	0x03, r25	; 3
     96c:	36 bf       	out	0x36, r19	; 54
     96e:	06 b6       	in	r0, 0x36	; 54
     970:	07 fe       	sbrs	r0, 7
     972:	fd cf       	rjmp	.-6      	; 0x96e <I2C_Start_Wait+0x1c>
     974:	81 b1       	in	r24, 0x01	; 1
     976:	88 7f       	andi	r24, 0xF8	; 248
     978:	88 31       	cpi	r24, 0x18	; 24
     97a:	29 f0       	breq	.+10     	; 0x986 <I2C_Start_Wait+0x34>
     97c:	26 bf       	out	0x36, r18	; 54
     97e:	06 b6       	in	r0, 0x36	; 54
     980:	04 fc       	sbrc	r0, 4
     982:	fd cf       	rjmp	.-6      	; 0x97e <I2C_Start_Wait+0x2c>
     984:	ea cf       	rjmp	.-44     	; 0x95a <I2C_Start_Wait+0x8>
     986:	08 95       	ret

00000988 <I2C_Write>:
     988:	83 b9       	out	0x03, r24	; 3
     98a:	84 e8       	ldi	r24, 0x84	; 132
     98c:	86 bf       	out	0x36, r24	; 54
     98e:	06 b6       	in	r0, 0x36	; 54
     990:	07 fe       	sbrs	r0, 7
     992:	fd cf       	rjmp	.-6      	; 0x98e <I2C_Write+0x6>
     994:	81 b1       	in	r24, 0x01	; 1
     996:	88 7f       	andi	r24, 0xF8	; 248
     998:	88 32       	cpi	r24, 0x28	; 40
     99a:	11 f4       	brne	.+4      	; 0x9a0 <I2C_Write+0x18>
     99c:	80 e0       	ldi	r24, 0x00	; 0
     99e:	08 95       	ret
     9a0:	80 33       	cpi	r24, 0x30	; 48
     9a2:	11 f0       	breq	.+4      	; 0x9a8 <I2C_Write+0x20>
     9a4:	82 e0       	ldi	r24, 0x02	; 2
     9a6:	08 95       	ret
     9a8:	81 e0       	ldi	r24, 0x01	; 1
     9aa:	08 95       	ret

000009ac <I2C_Read_Ack>:
     9ac:	84 ec       	ldi	r24, 0xC4	; 196
     9ae:	86 bf       	out	0x36, r24	; 54
     9b0:	06 b6       	in	r0, 0x36	; 54
     9b2:	07 fe       	sbrs	r0, 7
     9b4:	fd cf       	rjmp	.-6      	; 0x9b0 <I2C_Read_Ack+0x4>
     9b6:	83 b1       	in	r24, 0x03	; 3
     9b8:	90 e0       	ldi	r25, 0x00	; 0
     9ba:	08 95       	ret

000009bc <I2C_Read_Nack>:
     9bc:	84 e8       	ldi	r24, 0x84	; 132
     9be:	86 bf       	out	0x36, r24	; 54
     9c0:	06 b6       	in	r0, 0x36	; 54
     9c2:	07 fe       	sbrs	r0, 7
     9c4:	fd cf       	rjmp	.-6      	; 0x9c0 <I2C_Read_Nack+0x4>
     9c6:	83 b1       	in	r24, 0x03	; 3
     9c8:	90 e0       	ldi	r25, 0x00	; 0
     9ca:	08 95       	ret

000009cc <TWI_init>:
     9cc:	8c e0       	ldi	r24, 0x0C	; 12
     9ce:	80 b9       	out	0x00, r24	; 0
     9d0:	11 b8       	out	0x01, r1	; 1
     9d2:	82 e0       	ldi	r24, 0x02	; 2
     9d4:	82 b9       	out	0x02, r24	; 2
     9d6:	84 e0       	ldi	r24, 0x04	; 4
     9d8:	86 bf       	out	0x36, r24	; 54
     9da:	08 95       	ret

000009dc <TWI_start>:
     9dc:	84 ea       	ldi	r24, 0xA4	; 164
     9de:	86 bf       	out	0x36, r24	; 54
     9e0:	06 b6       	in	r0, 0x36	; 54
     9e2:	07 fe       	sbrs	r0, 7
     9e4:	fd cf       	rjmp	.-6      	; 0x9e0 <TWI_start+0x4>
     9e6:	08 95       	ret

000009e8 <TWI_stop>:
     9e8:	84 e9       	ldi	r24, 0x94	; 148
     9ea:	86 bf       	out	0x36, r24	; 54
     9ec:	08 95       	ret

000009ee <TWI_writeByte>:
     9ee:	83 b9       	out	0x03, r24	; 3
     9f0:	84 e8       	ldi	r24, 0x84	; 132
     9f2:	86 bf       	out	0x36, r24	; 54
     9f4:	06 b6       	in	r0, 0x36	; 54
     9f6:	07 fe       	sbrs	r0, 7
     9f8:	fd cf       	rjmp	.-6      	; 0x9f4 <TWI_writeByte+0x6>
     9fa:	08 95       	ret

000009fc <TWI_readByteWithACK>:
     9fc:	84 ec       	ldi	r24, 0xC4	; 196
     9fe:	86 bf       	out	0x36, r24	; 54
     a00:	06 b6       	in	r0, 0x36	; 54
     a02:	07 fe       	sbrs	r0, 7
     a04:	fd cf       	rjmp	.-6      	; 0xa00 <TWI_readByteWithACK+0x4>
     a06:	83 b1       	in	r24, 0x03	; 3
     a08:	08 95       	ret

00000a0a <TWI_readByteWithNACK>:
     a0a:	84 e8       	ldi	r24, 0x84	; 132
     a0c:	86 bf       	out	0x36, r24	; 54
     a0e:	06 b6       	in	r0, 0x36	; 54
     a10:	07 fe       	sbrs	r0, 7
     a12:	fd cf       	rjmp	.-6      	; 0xa0e <TWI_readByteWithNACK+0x4>
     a14:	83 b1       	in	r24, 0x03	; 3
     a16:	08 95       	ret

00000a18 <TWI_getStatus>:
     a18:	81 b1       	in	r24, 0x01	; 1
     a1a:	88 7f       	andi	r24, 0xF8	; 248
     a1c:	08 95       	ret

00000a1e <MCAL_EXT_INT_0_init>:
     a1e:	78 94       	sei
     a20:	81 30       	cpi	r24, 0x01	; 1
     a22:	59 f0       	breq	.+22     	; 0xa3a <MCAL_EXT_INT_0_init+0x1c>
     a24:	81 30       	cpi	r24, 0x01	; 1
     a26:	28 f0       	brcs	.+10     	; 0xa32 <MCAL_EXT_INT_0_init+0x14>
     a28:	82 30       	cpi	r24, 0x02	; 2
     a2a:	59 f0       	breq	.+22     	; 0xa42 <MCAL_EXT_INT_0_init+0x24>
     a2c:	83 30       	cpi	r24, 0x03	; 3
     a2e:	91 f4       	brne	.+36     	; 0xa54 <MCAL_EXT_INT_0_init+0x36>
     a30:	0c c0       	rjmp	.+24     	; 0xa4a <MCAL_EXT_INT_0_init+0x2c>
     a32:	85 b7       	in	r24, 0x35	; 53
     a34:	96 b7       	in	r25, 0x36	; 54
     a36:	8c 7f       	andi	r24, 0xFC	; 252
     a38:	0b c0       	rjmp	.+22     	; 0xa50 <MCAL_EXT_INT_0_init+0x32>
     a3a:	85 b7       	in	r24, 0x35	; 53
     a3c:	96 b7       	in	r25, 0x36	; 54
     a3e:	81 60       	ori	r24, 0x01	; 1
     a40:	07 c0       	rjmp	.+14     	; 0xa50 <MCAL_EXT_INT_0_init+0x32>
     a42:	85 b7       	in	r24, 0x35	; 53
     a44:	96 b7       	in	r25, 0x36	; 54
     a46:	82 60       	ori	r24, 0x02	; 2
     a48:	03 c0       	rjmp	.+6      	; 0xa50 <MCAL_EXT_INT_0_init+0x32>
     a4a:	85 b7       	in	r24, 0x35	; 53
     a4c:	96 b7       	in	r25, 0x36	; 54
     a4e:	83 60       	ori	r24, 0x03	; 3
     a50:	96 bf       	out	0x36, r25	; 54
     a52:	85 bf       	out	0x35, r24	; 53
     a54:	8b b7       	in	r24, 0x3b	; 59
     a56:	9c b7       	in	r25, 0x3c	; 60
     a58:	80 64       	ori	r24, 0x40	; 64
     a5a:	9c bf       	out	0x3c, r25	; 60
     a5c:	8b bf       	out	0x3b, r24	; 59
     a5e:	80 e0       	ldi	r24, 0x00	; 0
     a60:	08 95       	ret

00000a62 <MCAL_EXT_INT_1_init>:
     a62:	78 94       	sei
     a64:	81 30       	cpi	r24, 0x01	; 1
     a66:	59 f0       	breq	.+22     	; 0xa7e <MCAL_EXT_INT_1_init+0x1c>
     a68:	81 30       	cpi	r24, 0x01	; 1
     a6a:	28 f0       	brcs	.+10     	; 0xa76 <MCAL_EXT_INT_1_init+0x14>
     a6c:	82 30       	cpi	r24, 0x02	; 2
     a6e:	59 f0       	breq	.+22     	; 0xa86 <MCAL_EXT_INT_1_init+0x24>
     a70:	83 30       	cpi	r24, 0x03	; 3
     a72:	91 f4       	brne	.+36     	; 0xa98 <MCAL_EXT_INT_1_init+0x36>
     a74:	0c c0       	rjmp	.+24     	; 0xa8e <MCAL_EXT_INT_1_init+0x2c>
     a76:	85 b7       	in	r24, 0x35	; 53
     a78:	96 b7       	in	r25, 0x36	; 54
     a7a:	83 7f       	andi	r24, 0xF3	; 243
     a7c:	0b c0       	rjmp	.+22     	; 0xa94 <MCAL_EXT_INT_1_init+0x32>
     a7e:	85 b7       	in	r24, 0x35	; 53
     a80:	96 b7       	in	r25, 0x36	; 54
     a82:	84 60       	ori	r24, 0x04	; 4
     a84:	07 c0       	rjmp	.+14     	; 0xa94 <MCAL_EXT_INT_1_init+0x32>
     a86:	85 b7       	in	r24, 0x35	; 53
     a88:	96 b7       	in	r25, 0x36	; 54
     a8a:	88 60       	ori	r24, 0x08	; 8
     a8c:	03 c0       	rjmp	.+6      	; 0xa94 <MCAL_EXT_INT_1_init+0x32>
     a8e:	85 b7       	in	r24, 0x35	; 53
     a90:	96 b7       	in	r25, 0x36	; 54
     a92:	8c 60       	ori	r24, 0x0C	; 12
     a94:	96 bf       	out	0x36, r25	; 54
     a96:	85 bf       	out	0x35, r24	; 53
     a98:	8b b7       	in	r24, 0x3b	; 59
     a9a:	9c b7       	in	r25, 0x3c	; 60
     a9c:	80 68       	ori	r24, 0x80	; 128
     a9e:	9c bf       	out	0x3c, r25	; 60
     aa0:	8b bf       	out	0x3b, r24	; 59
     aa2:	80 e0       	ldi	r24, 0x00	; 0
     aa4:	08 95       	ret

00000aa6 <MCAL_EXT_INT_2_init>:
     aa6:	78 94       	sei
     aa8:	82 30       	cpi	r24, 0x02	; 2
     aaa:	19 f0       	breq	.+6      	; 0xab2 <MCAL_EXT_INT_2_init+0xc>
     aac:	83 30       	cpi	r24, 0x03	; 3
     aae:	51 f4       	brne	.+20     	; 0xac4 <MCAL_EXT_INT_2_init+0x1e>
     ab0:	04 c0       	rjmp	.+8      	; 0xaba <MCAL_EXT_INT_2_init+0x14>
     ab2:	84 b7       	in	r24, 0x34	; 52
     ab4:	95 b7       	in	r25, 0x35	; 53
     ab6:	8f 7b       	andi	r24, 0xBF	; 191
     ab8:	03 c0       	rjmp	.+6      	; 0xac0 <MCAL_EXT_INT_2_init+0x1a>
     aba:	84 b7       	in	r24, 0x34	; 52
     abc:	95 b7       	in	r25, 0x35	; 53
     abe:	80 64       	ori	r24, 0x40	; 64
     ac0:	95 bf       	out	0x35, r25	; 53
     ac2:	84 bf       	out	0x34, r24	; 52
     ac4:	8b b7       	in	r24, 0x3b	; 59
     ac6:	9c b7       	in	r25, 0x3c	; 60
     ac8:	80 62       	ori	r24, 0x20	; 32
     aca:	9c bf       	out	0x3c, r25	; 60
     acc:	8b bf       	out	0x3b, r24	; 59
     ace:	80 e0       	ldi	r24, 0x00	; 0
     ad0:	08 95       	ret

00000ad2 <MCAL_Ext_INT_setCallBack>:
     ad2:	61 30       	cpi	r22, 0x01	; 1
     ad4:	61 f0       	breq	.+24     	; 0xaee <MCAL_Ext_INT_setCallBack+0x1c>
     ad6:	61 30       	cpi	r22, 0x01	; 1
     ad8:	18 f0       	brcs	.+6      	; 0xae0 <MCAL_Ext_INT_setCallBack+0xe>
     ada:	62 30       	cpi	r22, 0x02	; 2
     adc:	a9 f4       	brne	.+42     	; 0xb08 <MCAL_Ext_INT_setCallBack+0x36>
     ade:	0e c0       	rjmp	.+28     	; 0xafc <MCAL_Ext_INT_setCallBack+0x2a>
     ae0:	00 97       	sbiw	r24, 0x00	; 0
     ae2:	91 f0       	breq	.+36     	; 0xb08 <MCAL_Ext_INT_setCallBack+0x36>
     ae4:	90 93 fa 00 	sts	0x00FA, r25
     ae8:	80 93 f9 00 	sts	0x00F9, r24
     aec:	0d c0       	rjmp	.+26     	; 0xb08 <MCAL_Ext_INT_setCallBack+0x36>
     aee:	00 97       	sbiw	r24, 0x00	; 0
     af0:	59 f0       	breq	.+22     	; 0xb08 <MCAL_Ext_INT_setCallBack+0x36>
     af2:	90 93 f8 00 	sts	0x00F8, r25
     af6:	80 93 f7 00 	sts	0x00F7, r24
     afa:	06 c0       	rjmp	.+12     	; 0xb08 <MCAL_Ext_INT_setCallBack+0x36>
     afc:	00 97       	sbiw	r24, 0x00	; 0
     afe:	21 f0       	breq	.+8      	; 0xb08 <MCAL_Ext_INT_setCallBack+0x36>
     b00:	90 93 f6 00 	sts	0x00F6, r25
     b04:	80 93 f5 00 	sts	0x00F5, r24
     b08:	80 e0       	ldi	r24, 0x00	; 0
     b0a:	08 95       	ret

00000b0c <__vector_1>:
     b0c:	1f 92       	push	r1
     b0e:	0f 92       	push	r0
     b10:	0f b6       	in	r0, 0x3f	; 63
     b12:	0f 92       	push	r0
     b14:	11 24       	eor	r1, r1
     b16:	2f 93       	push	r18
     b18:	3f 93       	push	r19
     b1a:	4f 93       	push	r20
     b1c:	5f 93       	push	r21
     b1e:	6f 93       	push	r22
     b20:	7f 93       	push	r23
     b22:	8f 93       	push	r24
     b24:	9f 93       	push	r25
     b26:	af 93       	push	r26
     b28:	bf 93       	push	r27
     b2a:	ef 93       	push	r30
     b2c:	ff 93       	push	r31
     b2e:	e0 91 f9 00 	lds	r30, 0x00F9
     b32:	f0 91 fa 00 	lds	r31, 0x00FA
     b36:	30 97       	sbiw	r30, 0x00	; 0
     b38:	09 f0       	breq	.+2      	; 0xb3c <__vector_1+0x30>
     b3a:	09 95       	icall
     b3c:	ff 91       	pop	r31
     b3e:	ef 91       	pop	r30
     b40:	bf 91       	pop	r27
     b42:	af 91       	pop	r26
     b44:	9f 91       	pop	r25
     b46:	8f 91       	pop	r24
     b48:	7f 91       	pop	r23
     b4a:	6f 91       	pop	r22
     b4c:	5f 91       	pop	r21
     b4e:	4f 91       	pop	r20
     b50:	3f 91       	pop	r19
     b52:	2f 91       	pop	r18
     b54:	0f 90       	pop	r0
     b56:	0f be       	out	0x3f, r0	; 63
     b58:	0f 90       	pop	r0
     b5a:	1f 90       	pop	r1
     b5c:	18 95       	reti

00000b5e <__vector_2>:
     b5e:	1f 92       	push	r1
     b60:	0f 92       	push	r0
     b62:	0f b6       	in	r0, 0x3f	; 63
     b64:	0f 92       	push	r0
     b66:	11 24       	eor	r1, r1
     b68:	2f 93       	push	r18
     b6a:	3f 93       	push	r19
     b6c:	4f 93       	push	r20
     b6e:	5f 93       	push	r21
     b70:	6f 93       	push	r22
     b72:	7f 93       	push	r23
     b74:	8f 93       	push	r24
     b76:	9f 93       	push	r25
     b78:	af 93       	push	r26
     b7a:	bf 93       	push	r27
     b7c:	ef 93       	push	r30
     b7e:	ff 93       	push	r31
     b80:	e0 91 f7 00 	lds	r30, 0x00F7
     b84:	f0 91 f8 00 	lds	r31, 0x00F8
     b88:	30 97       	sbiw	r30, 0x00	; 0
     b8a:	09 f0       	breq	.+2      	; 0xb8e <__vector_2+0x30>
     b8c:	09 95       	icall
     b8e:	ff 91       	pop	r31
     b90:	ef 91       	pop	r30
     b92:	bf 91       	pop	r27
     b94:	af 91       	pop	r26
     b96:	9f 91       	pop	r25
     b98:	8f 91       	pop	r24
     b9a:	7f 91       	pop	r23
     b9c:	6f 91       	pop	r22
     b9e:	5f 91       	pop	r21
     ba0:	4f 91       	pop	r20
     ba2:	3f 91       	pop	r19
     ba4:	2f 91       	pop	r18
     ba6:	0f 90       	pop	r0
     ba8:	0f be       	out	0x3f, r0	; 63
     baa:	0f 90       	pop	r0
     bac:	1f 90       	pop	r1
     bae:	18 95       	reti

00000bb0 <__vector_3>:
     bb0:	1f 92       	push	r1
     bb2:	0f 92       	push	r0
     bb4:	0f b6       	in	r0, 0x3f	; 63
     bb6:	0f 92       	push	r0
     bb8:	11 24       	eor	r1, r1
     bba:	2f 93       	push	r18
     bbc:	3f 93       	push	r19
     bbe:	4f 93       	push	r20
     bc0:	5f 93       	push	r21
     bc2:	6f 93       	push	r22
     bc4:	7f 93       	push	r23
     bc6:	8f 93       	push	r24
     bc8:	9f 93       	push	r25
     bca:	af 93       	push	r26
     bcc:	bf 93       	push	r27
     bce:	ef 93       	push	r30
     bd0:	ff 93       	push	r31
     bd2:	e0 91 f5 00 	lds	r30, 0x00F5
     bd6:	f0 91 f6 00 	lds	r31, 0x00F6
     bda:	30 97       	sbiw	r30, 0x00	; 0
     bdc:	09 f0       	breq	.+2      	; 0xbe0 <__vector_3+0x30>
     bde:	09 95       	icall
     be0:	ff 91       	pop	r31
     be2:	ef 91       	pop	r30
     be4:	bf 91       	pop	r27
     be6:	af 91       	pop	r26
     be8:	9f 91       	pop	r25
     bea:	8f 91       	pop	r24
     bec:	7f 91       	pop	r23
     bee:	6f 91       	pop	r22
     bf0:	5f 91       	pop	r21
     bf2:	4f 91       	pop	r20
     bf4:	3f 91       	pop	r19
     bf6:	2f 91       	pop	r18
     bf8:	0f 90       	pop	r0
     bfa:	0f be       	out	0x3f, r0	; 63
     bfc:	0f 90       	pop	r0
     bfe:	1f 90       	pop	r1
     c00:	18 95       	reti

00000c02 <EEPROM_readByte>:
     c02:	ef 92       	push	r14
     c04:	ff 92       	push	r15
     c06:	1f 93       	push	r17
     c08:	cf 93       	push	r28
     c0a:	df 93       	push	r29
     c0c:	ec 01       	movw	r28, r24
     c0e:	7b 01       	movw	r14, r22
     c10:	0e 94 ee 04 	call	0x9dc	; 0x9dc <TWI_start>
     c14:	0e 94 0c 05 	call	0xa18	; 0xa18 <TWI_getStatus>
     c18:	88 30       	cpi	r24, 0x08	; 8
     c1a:	89 f5       	brne	.+98     	; 0xc7e <EEPROM_readByte+0x7c>
     c1c:	ce 01       	movw	r24, r28
     c1e:	88 0f       	add	r24, r24
     c20:	89 2f       	mov	r24, r25
     c22:	88 1f       	adc	r24, r24
     c24:	99 0b       	sbc	r25, r25
     c26:	91 95       	neg	r25
     c28:	18 2f       	mov	r17, r24
     c2a:	1e 70       	andi	r17, 0x0E	; 14
     c2c:	81 2f       	mov	r24, r17
     c2e:	80 6a       	ori	r24, 0xA0	; 160
     c30:	0e 94 f7 04 	call	0x9ee	; 0x9ee <TWI_writeByte>
     c34:	0e 94 0c 05 	call	0xa18	; 0xa18 <TWI_getStatus>
     c38:	88 31       	cpi	r24, 0x18	; 24
     c3a:	09 f5       	brne	.+66     	; 0xc7e <EEPROM_readByte+0x7c>
     c3c:	8c 2f       	mov	r24, r28
     c3e:	0e 94 f7 04 	call	0x9ee	; 0x9ee <TWI_writeByte>
     c42:	0e 94 0c 05 	call	0xa18	; 0xa18 <TWI_getStatus>
     c46:	88 32       	cpi	r24, 0x28	; 40
     c48:	d1 f4       	brne	.+52     	; 0xc7e <EEPROM_readByte+0x7c>
     c4a:	0e 94 ee 04 	call	0x9dc	; 0x9dc <TWI_start>
     c4e:	0e 94 0c 05 	call	0xa18	; 0xa18 <TWI_getStatus>
     c52:	80 31       	cpi	r24, 0x10	; 16
     c54:	a1 f4       	brne	.+40     	; 0xc7e <EEPROM_readByte+0x7c>
     c56:	81 2f       	mov	r24, r17
     c58:	81 6a       	ori	r24, 0xA1	; 161
     c5a:	0e 94 f7 04 	call	0x9ee	; 0x9ee <TWI_writeByte>
     c5e:	0e 94 0c 05 	call	0xa18	; 0xa18 <TWI_getStatus>
     c62:	80 34       	cpi	r24, 0x40	; 64
     c64:	61 f4       	brne	.+24     	; 0xc7e <EEPROM_readByte+0x7c>
     c66:	0e 94 05 05 	call	0xa0a	; 0xa0a <TWI_readByteWithNACK>
     c6a:	f7 01       	movw	r30, r14
     c6c:	80 83       	st	Z, r24
     c6e:	0e 94 0c 05 	call	0xa18	; 0xa18 <TWI_getStatus>
     c72:	88 35       	cpi	r24, 0x58	; 88
     c74:	21 f4       	brne	.+8      	; 0xc7e <EEPROM_readByte+0x7c>
     c76:	0e 94 f4 04 	call	0x9e8	; 0x9e8 <TWI_stop>
     c7a:	81 e0       	ldi	r24, 0x01	; 1
     c7c:	01 c0       	rjmp	.+2      	; 0xc80 <EEPROM_readByte+0x7e>
     c7e:	80 e0       	ldi	r24, 0x00	; 0
     c80:	df 91       	pop	r29
     c82:	cf 91       	pop	r28
     c84:	1f 91       	pop	r17
     c86:	ff 90       	pop	r15
     c88:	ef 90       	pop	r14
     c8a:	08 95       	ret

00000c8c <EEPROM_writeByte>:
     c8c:	1f 93       	push	r17
     c8e:	cf 93       	push	r28
     c90:	df 93       	push	r29
     c92:	ec 01       	movw	r28, r24
     c94:	16 2f       	mov	r17, r22
     c96:	0e 94 ee 04 	call	0x9dc	; 0x9dc <TWI_start>
     c9a:	0e 94 0c 05 	call	0xa18	; 0xa18 <TWI_getStatus>
     c9e:	88 30       	cpi	r24, 0x08	; 8
     ca0:	09 f5       	brne	.+66     	; 0xce4 <EEPROM_writeByte+0x58>
     ca2:	ce 01       	movw	r24, r28
     ca4:	80 70       	andi	r24, 0x00	; 0
     ca6:	97 70       	andi	r25, 0x07	; 7
     ca8:	88 0f       	add	r24, r24
     caa:	89 2f       	mov	r24, r25
     cac:	88 1f       	adc	r24, r24
     cae:	99 0b       	sbc	r25, r25
     cb0:	91 95       	neg	r25
     cb2:	80 6a       	ori	r24, 0xA0	; 160
     cb4:	0e 94 f7 04 	call	0x9ee	; 0x9ee <TWI_writeByte>
     cb8:	0e 94 0c 05 	call	0xa18	; 0xa18 <TWI_getStatus>
     cbc:	88 31       	cpi	r24, 0x18	; 24
     cbe:	91 f4       	brne	.+36     	; 0xce4 <EEPROM_writeByte+0x58>
     cc0:	8c 2f       	mov	r24, r28
     cc2:	0e 94 f7 04 	call	0x9ee	; 0x9ee <TWI_writeByte>
     cc6:	0e 94 0c 05 	call	0xa18	; 0xa18 <TWI_getStatus>
     cca:	88 32       	cpi	r24, 0x28	; 40
     ccc:	59 f4       	brne	.+22     	; 0xce4 <EEPROM_writeByte+0x58>
     cce:	81 2f       	mov	r24, r17
     cd0:	0e 94 f7 04 	call	0x9ee	; 0x9ee <TWI_writeByte>
     cd4:	0e 94 0c 05 	call	0xa18	; 0xa18 <TWI_getStatus>
     cd8:	88 32       	cpi	r24, 0x28	; 40
     cda:	21 f4       	brne	.+8      	; 0xce4 <EEPROM_writeByte+0x58>
     cdc:	0e 94 f4 04 	call	0x9e8	; 0x9e8 <TWI_stop>
     ce0:	81 e0       	ldi	r24, 0x01	; 1
     ce2:	01 c0       	rjmp	.+2      	; 0xce6 <EEPROM_writeByte+0x5a>
     ce4:	80 e0       	ldi	r24, 0x00	; 0
     ce6:	df 91       	pop	r29
     ce8:	cf 91       	pop	r28
     cea:	1f 91       	pop	r17
     cec:	08 95       	ret

00000cee <MCAL_Dio_Init>:
     cee:	fc 01       	movw	r30, r24
     cf0:	80 81       	ld	r24, Z
     cf2:	84 30       	cpi	r24, 0x04	; 4
     cf4:	10 f0       	brcs	.+4      	; 0xcfa <MCAL_Dio_Init+0xc>
     cf6:	81 e0       	ldi	r24, 0x01	; 1
     cf8:	08 95       	ret
     cfa:	21 81       	ldd	r18, Z+1	; 0x01
     cfc:	92 81       	ldd	r25, Z+2	; 0x02
     cfe:	92 23       	and	r25, r18
     d00:	81 30       	cpi	r24, 0x01	; 1
     d02:	69 f0       	breq	.+26     	; 0xd1e <MCAL_Dio_Init+0x30>
     d04:	81 30       	cpi	r24, 0x01	; 1
     d06:	28 f0       	brcs	.+10     	; 0xd12 <MCAL_Dio_Init+0x24>
     d08:	82 30       	cpi	r24, 0x02	; 2
     d0a:	79 f0       	breq	.+30     	; 0xd2a <MCAL_Dio_Init+0x3c>
     d0c:	83 30       	cpi	r24, 0x03	; 3
     d0e:	91 f4       	brne	.+36     	; 0xd34 <MCAL_Dio_Init+0x46>
     d10:	13 c0       	rjmp	.+38     	; 0xd38 <MCAL_Dio_Init+0x4a>
     d12:	8a b3       	in	r24, 0x1a	; 26
     d14:	20 95       	com	r18
     d16:	28 23       	and	r18, r24
     d18:	29 2b       	or	r18, r25
     d1a:	2a bb       	out	0x1a, r18	; 26
     d1c:	0b c0       	rjmp	.+22     	; 0xd34 <MCAL_Dio_Init+0x46>
     d1e:	87 b3       	in	r24, 0x17	; 23
     d20:	20 95       	com	r18
     d22:	28 23       	and	r18, r24
     d24:	29 2b       	or	r18, r25
     d26:	27 bb       	out	0x17, r18	; 23
     d28:	05 c0       	rjmp	.+10     	; 0xd34 <MCAL_Dio_Init+0x46>
     d2a:	84 b3       	in	r24, 0x14	; 20
     d2c:	20 95       	com	r18
     d2e:	28 23       	and	r18, r24
     d30:	29 2b       	or	r18, r25
     d32:	24 bb       	out	0x14, r18	; 20
     d34:	80 e0       	ldi	r24, 0x00	; 0
     d36:	08 95       	ret
     d38:	81 b3       	in	r24, 0x11	; 17
     d3a:	20 95       	com	r18
     d3c:	28 23       	and	r18, r24
     d3e:	29 2b       	or	r18, r25
     d40:	21 bb       	out	0x11, r18	; 17
     d42:	80 e0       	ldi	r24, 0x00	; 0
     d44:	08 95       	ret

00000d46 <MCAL_Dio_SetPortDirection>:
     d46:	fc 01       	movw	r30, r24
     d48:	80 81       	ld	r24, Z
     d4a:	84 30       	cpi	r24, 0x04	; 4
     d4c:	10 f0       	brcs	.+4      	; 0xd52 <MCAL_Dio_SetPortDirection+0xc>
     d4e:	81 e0       	ldi	r24, 0x01	; 1
     d50:	08 95       	ret
     d52:	81 30       	cpi	r24, 0x01	; 1
     d54:	51 f0       	breq	.+20     	; 0xd6a <MCAL_Dio_SetPortDirection+0x24>
     d56:	81 30       	cpi	r24, 0x01	; 1
     d58:	28 f0       	brcs	.+10     	; 0xd64 <MCAL_Dio_SetPortDirection+0x1e>
     d5a:	82 30       	cpi	r24, 0x02	; 2
     d5c:	49 f0       	breq	.+18     	; 0xd70 <MCAL_Dio_SetPortDirection+0x2a>
     d5e:	83 30       	cpi	r24, 0x03	; 3
     d60:	49 f4       	brne	.+18     	; 0xd74 <MCAL_Dio_SetPortDirection+0x2e>
     d62:	0a c0       	rjmp	.+20     	; 0xd78 <MCAL_Dio_SetPortDirection+0x32>
     d64:	82 81       	ldd	r24, Z+2	; 0x02
     d66:	8a bb       	out	0x1a, r24	; 26
     d68:	05 c0       	rjmp	.+10     	; 0xd74 <MCAL_Dio_SetPortDirection+0x2e>
     d6a:	82 81       	ldd	r24, Z+2	; 0x02
     d6c:	87 bb       	out	0x17, r24	; 23
     d6e:	02 c0       	rjmp	.+4      	; 0xd74 <MCAL_Dio_SetPortDirection+0x2e>
     d70:	82 81       	ldd	r24, Z+2	; 0x02
     d72:	84 bb       	out	0x14, r24	; 20
     d74:	80 e0       	ldi	r24, 0x00	; 0
     d76:	08 95       	ret
     d78:	82 81       	ldd	r24, Z+2	; 0x02
     d7a:	81 bb       	out	0x11, r24	; 17
     d7c:	80 e0       	ldi	r24, 0x00	; 0
     d7e:	08 95       	ret

00000d80 <MCAL_Dio_SetPinDirection>:
     d80:	fc 01       	movw	r30, r24
     d82:	80 81       	ld	r24, Z
     d84:	84 30       	cpi	r24, 0x04	; 4
     d86:	10 f0       	brcs	.+4      	; 0xd8c <MCAL_Dio_SetPinDirection+0xc>
     d88:	81 e0       	ldi	r24, 0x01	; 1
     d8a:	08 95       	ret
     d8c:	21 81       	ldd	r18, Z+1	; 0x01
     d8e:	92 81       	ldd	r25, Z+2	; 0x02
     d90:	92 23       	and	r25, r18
     d92:	81 30       	cpi	r24, 0x01	; 1
     d94:	69 f0       	breq	.+26     	; 0xdb0 <MCAL_Dio_SetPinDirection+0x30>
     d96:	81 30       	cpi	r24, 0x01	; 1
     d98:	28 f0       	brcs	.+10     	; 0xda4 <MCAL_Dio_SetPinDirection+0x24>
     d9a:	82 30       	cpi	r24, 0x02	; 2
     d9c:	79 f0       	breq	.+30     	; 0xdbc <MCAL_Dio_SetPinDirection+0x3c>
     d9e:	83 30       	cpi	r24, 0x03	; 3
     da0:	91 f4       	brne	.+36     	; 0xdc6 <MCAL_Dio_SetPinDirection+0x46>
     da2:	13 c0       	rjmp	.+38     	; 0xdca <MCAL_Dio_SetPinDirection+0x4a>
     da4:	8a b3       	in	r24, 0x1a	; 26
     da6:	20 95       	com	r18
     da8:	28 23       	and	r18, r24
     daa:	29 2b       	or	r18, r25
     dac:	2a bb       	out	0x1a, r18	; 26
     dae:	0b c0       	rjmp	.+22     	; 0xdc6 <MCAL_Dio_SetPinDirection+0x46>
     db0:	87 b3       	in	r24, 0x17	; 23
     db2:	20 95       	com	r18
     db4:	28 23       	and	r18, r24
     db6:	29 2b       	or	r18, r25
     db8:	27 bb       	out	0x17, r18	; 23
     dba:	05 c0       	rjmp	.+10     	; 0xdc6 <MCAL_Dio_SetPinDirection+0x46>
     dbc:	84 b3       	in	r24, 0x14	; 20
     dbe:	20 95       	com	r18
     dc0:	28 23       	and	r18, r24
     dc2:	29 2b       	or	r18, r25
     dc4:	24 bb       	out	0x14, r18	; 20
     dc6:	80 e0       	ldi	r24, 0x00	; 0
     dc8:	08 95       	ret
     dca:	81 b3       	in	r24, 0x11	; 17
     dcc:	20 95       	com	r18
     dce:	28 23       	and	r18, r24
     dd0:	29 2b       	or	r18, r25
     dd2:	21 bb       	out	0x11, r18	; 17
     dd4:	80 e0       	ldi	r24, 0x00	; 0
     dd6:	08 95       	ret

00000dd8 <MCAL_Dio_ReadPort>:
     dd8:	fc 01       	movw	r30, r24
     dda:	db 01       	movw	r26, r22
     ddc:	e0 81       	ld	r30, Z
     dde:	e4 30       	cpi	r30, 0x04	; 4
     de0:	10 f0       	brcs	.+4      	; 0xde6 <MCAL_Dio_ReadPort+0xe>
     de2:	81 e0       	ldi	r24, 0x01	; 1
     de4:	08 95       	ret
     de6:	e1 30       	cpi	r30, 0x01	; 1
     de8:	49 f0       	breq	.+18     	; 0xdfc <MCAL_Dio_ReadPort+0x24>
     dea:	e1 30       	cpi	r30, 0x01	; 1
     dec:	28 f0       	brcs	.+10     	; 0xdf8 <MCAL_Dio_ReadPort+0x20>
     dee:	e2 30       	cpi	r30, 0x02	; 2
     df0:	39 f0       	breq	.+14     	; 0xe00 <MCAL_Dio_ReadPort+0x28>
     df2:	e3 30       	cpi	r30, 0x03	; 3
     df4:	39 f4       	brne	.+14     	; 0xe04 <MCAL_Dio_ReadPort+0x2c>
     df6:	08 c0       	rjmp	.+16     	; 0xe08 <MCAL_Dio_ReadPort+0x30>
     df8:	89 b3       	in	r24, 0x19	; 25
     dfa:	03 c0       	rjmp	.+6      	; 0xe02 <MCAL_Dio_ReadPort+0x2a>
     dfc:	86 b3       	in	r24, 0x16	; 22
     dfe:	01 c0       	rjmp	.+2      	; 0xe02 <MCAL_Dio_ReadPort+0x2a>
     e00:	83 b3       	in	r24, 0x13	; 19
     e02:	8c 93       	st	X, r24
     e04:	80 e0       	ldi	r24, 0x00	; 0
     e06:	08 95       	ret
     e08:	80 b3       	in	r24, 0x10	; 16
     e0a:	8c 93       	st	X, r24
     e0c:	80 e0       	ldi	r24, 0x00	; 0
     e0e:	08 95       	ret

00000e10 <MCAL_Dio_ReadPin>:
     e10:	fc 01       	movw	r30, r24
     e12:	db 01       	movw	r26, r22
     e14:	80 81       	ld	r24, Z
     e16:	84 30       	cpi	r24, 0x04	; 4
     e18:	10 f0       	brcs	.+4      	; 0xe1e <MCAL_Dio_ReadPin+0xe>
     e1a:	81 e0       	ldi	r24, 0x01	; 1
     e1c:	08 95       	ret
     e1e:	81 30       	cpi	r24, 0x01	; 1
     e20:	49 f0       	breq	.+18     	; 0xe34 <MCAL_Dio_ReadPin+0x24>
     e22:	81 30       	cpi	r24, 0x01	; 1
     e24:	28 f0       	brcs	.+10     	; 0xe30 <MCAL_Dio_ReadPin+0x20>
     e26:	82 30       	cpi	r24, 0x02	; 2
     e28:	39 f0       	breq	.+14     	; 0xe38 <MCAL_Dio_ReadPin+0x28>
     e2a:	83 30       	cpi	r24, 0x03	; 3
     e2c:	79 f4       	brne	.+30     	; 0xe4c <MCAL_Dio_ReadPin+0x3c>
     e2e:	10 c0       	rjmp	.+32     	; 0xe50 <MCAL_Dio_ReadPin+0x40>
     e30:	89 b3       	in	r24, 0x19	; 25
     e32:	03 c0       	rjmp	.+6      	; 0xe3a <MCAL_Dio_ReadPin+0x2a>
     e34:	86 b3       	in	r24, 0x16	; 22
     e36:	01 c0       	rjmp	.+2      	; 0xe3a <MCAL_Dio_ReadPin+0x2a>
     e38:	83 b3       	in	r24, 0x13	; 19
     e3a:	90 e0       	ldi	r25, 0x00	; 0
     e3c:	01 80       	ldd	r0, Z+1	; 0x01
     e3e:	02 c0       	rjmp	.+4      	; 0xe44 <MCAL_Dio_ReadPin+0x34>
     e40:	95 95       	asr	r25
     e42:	87 95       	ror	r24
     e44:	0a 94       	dec	r0
     e46:	e2 f7       	brpl	.-8      	; 0xe40 <MCAL_Dio_ReadPin+0x30>
     e48:	81 70       	andi	r24, 0x01	; 1
     e4a:	8c 93       	st	X, r24
     e4c:	80 e0       	ldi	r24, 0x00	; 0
     e4e:	08 95       	ret
     e50:	80 b3       	in	r24, 0x10	; 16
     e52:	90 e0       	ldi	r25, 0x00	; 0
     e54:	01 80       	ldd	r0, Z+1	; 0x01
     e56:	02 c0       	rjmp	.+4      	; 0xe5c <MCAL_Dio_ReadPin+0x4c>
     e58:	95 95       	asr	r25
     e5a:	87 95       	ror	r24
     e5c:	0a 94       	dec	r0
     e5e:	e2 f7       	brpl	.-8      	; 0xe58 <MCAL_Dio_ReadPin+0x48>
     e60:	81 70       	andi	r24, 0x01	; 1
     e62:	8c 93       	st	X, r24
     e64:	80 e0       	ldi	r24, 0x00	; 0
     e66:	08 95       	ret

00000e68 <MCAL_Dio_WritePort>:
     e68:	fc 01       	movw	r30, r24
     e6a:	e0 81       	ld	r30, Z
     e6c:	e4 30       	cpi	r30, 0x04	; 4
     e6e:	10 f0       	brcs	.+4      	; 0xe74 <MCAL_Dio_WritePort+0xc>
     e70:	81 e0       	ldi	r24, 0x01	; 1
     e72:	08 95       	ret
     e74:	e1 30       	cpi	r30, 0x01	; 1
     e76:	49 f0       	breq	.+18     	; 0xe8a <MCAL_Dio_WritePort+0x22>
     e78:	e1 30       	cpi	r30, 0x01	; 1
     e7a:	28 f0       	brcs	.+10     	; 0xe86 <MCAL_Dio_WritePort+0x1e>
     e7c:	e2 30       	cpi	r30, 0x02	; 2
     e7e:	39 f0       	breq	.+14     	; 0xe8e <MCAL_Dio_WritePort+0x26>
     e80:	e3 30       	cpi	r30, 0x03	; 3
     e82:	31 f4       	brne	.+12     	; 0xe90 <MCAL_Dio_WritePort+0x28>
     e84:	07 c0       	rjmp	.+14     	; 0xe94 <MCAL_Dio_WritePort+0x2c>
     e86:	6b bb       	out	0x1b, r22	; 27
     e88:	03 c0       	rjmp	.+6      	; 0xe90 <MCAL_Dio_WritePort+0x28>
     e8a:	68 bb       	out	0x18, r22	; 24
     e8c:	01 c0       	rjmp	.+2      	; 0xe90 <MCAL_Dio_WritePort+0x28>
     e8e:	65 bb       	out	0x15, r22	; 21
     e90:	80 e0       	ldi	r24, 0x00	; 0
     e92:	08 95       	ret
     e94:	62 bb       	out	0x12, r22	; 18
     e96:	80 e0       	ldi	r24, 0x00	; 0
     e98:	08 95       	ret

00000e9a <MCAL_Dio_WritePin>:
     e9a:	fc 01       	movw	r30, r24
     e9c:	80 81       	ld	r24, Z
     e9e:	84 30       	cpi	r24, 0x04	; 4
     ea0:	10 f0       	brcs	.+4      	; 0xea6 <MCAL_Dio_WritePin+0xc>
     ea2:	81 e0       	ldi	r24, 0x01	; 1
     ea4:	08 95       	ret
     ea6:	91 81       	ldd	r25, Z+1	; 0x01
     ea8:	69 23       	and	r22, r25
     eaa:	81 30       	cpi	r24, 0x01	; 1
     eac:	69 f0       	breq	.+26     	; 0xec8 <MCAL_Dio_WritePin+0x2e>
     eae:	81 30       	cpi	r24, 0x01	; 1
     eb0:	28 f0       	brcs	.+10     	; 0xebc <MCAL_Dio_WritePin+0x22>
     eb2:	82 30       	cpi	r24, 0x02	; 2
     eb4:	79 f0       	breq	.+30     	; 0xed4 <MCAL_Dio_WritePin+0x3a>
     eb6:	83 30       	cpi	r24, 0x03	; 3
     eb8:	91 f4       	brne	.+36     	; 0xede <MCAL_Dio_WritePin+0x44>
     eba:	13 c0       	rjmp	.+38     	; 0xee2 <MCAL_Dio_WritePin+0x48>
     ebc:	8b b3       	in	r24, 0x1b	; 27
     ebe:	90 95       	com	r25
     ec0:	98 23       	and	r25, r24
     ec2:	96 2b       	or	r25, r22
     ec4:	9b bb       	out	0x1b, r25	; 27
     ec6:	0b c0       	rjmp	.+22     	; 0xede <MCAL_Dio_WritePin+0x44>
     ec8:	88 b3       	in	r24, 0x18	; 24
     eca:	90 95       	com	r25
     ecc:	98 23       	and	r25, r24
     ece:	96 2b       	or	r25, r22
     ed0:	98 bb       	out	0x18, r25	; 24
     ed2:	05 c0       	rjmp	.+10     	; 0xede <MCAL_Dio_WritePin+0x44>
     ed4:	85 b3       	in	r24, 0x15	; 21
     ed6:	90 95       	com	r25
     ed8:	98 23       	and	r25, r24
     eda:	96 2b       	or	r25, r22
     edc:	95 bb       	out	0x15, r25	; 21
     ede:	80 e0       	ldi	r24, 0x00	; 0
     ee0:	08 95       	ret
     ee2:	82 b3       	in	r24, 0x12	; 18
     ee4:	90 95       	com	r25
     ee6:	98 23       	and	r25, r24
     ee8:	96 2b       	or	r25, r22
     eea:	92 bb       	out	0x12, r25	; 18
     eec:	80 e0       	ldi	r24, 0x00	; 0
     eee:	08 95       	ret

00000ef0 <MCAL_Dio_WriteSinglePin>:
     ef0:	fc 01       	movw	r30, r24
     ef2:	e0 81       	ld	r30, Z
     ef4:	e4 30       	cpi	r30, 0x04	; 4
     ef6:	10 f0       	brcs	.+4      	; 0xefc <MCAL_Dio_WriteSinglePin+0xc>
     ef8:	81 e0       	ldi	r24, 0x01	; 1
     efa:	08 95       	ret
     efc:	20 e0       	ldi	r18, 0x00	; 0
     efe:	30 e0       	ldi	r19, 0x00	; 0
     f00:	70 e0       	ldi	r23, 0x00	; 0
     f02:	cb 01       	movw	r24, r22
     f04:	02 2e       	mov	r0, r18
     f06:	02 c0       	rjmp	.+4      	; 0xf0c <MCAL_Dio_WriteSinglePin+0x1c>
     f08:	95 95       	asr	r25
     f0a:	87 95       	ror	r24
     f0c:	0a 94       	dec	r0
     f0e:	e2 f7       	brpl	.-8      	; 0xf08 <MCAL_Dio_WriteSinglePin+0x18>
     f10:	80 ff       	sbrs	r24, 0
     f12:	02 c0       	rjmp	.+4      	; 0xf18 <MCAL_Dio_WriteSinglePin+0x28>
     f14:	32 2f       	mov	r19, r18
     f16:	05 c0       	rjmp	.+10     	; 0xf22 <MCAL_Dio_WriteSinglePin+0x32>
     f18:	2f 5f       	subi	r18, 0xFF	; 255
     f1a:	3f 4f       	sbci	r19, 0xFF	; 255
     f1c:	28 30       	cpi	r18, 0x08	; 8
     f1e:	31 05       	cpc	r19, r1
     f20:	81 f7       	brne	.-32     	; 0xf02 <MCAL_Dio_WriteSinglePin+0x12>
     f22:	e1 30       	cpi	r30, 0x01	; 1
     f24:	09 f1       	breq	.+66     	; 0xf68 <MCAL_Dio_WriteSinglePin+0x78>
     f26:	e1 30       	cpi	r30, 0x01	; 1
     f28:	30 f0       	brcs	.+12     	; 0xf36 <MCAL_Dio_WriteSinglePin+0x46>
     f2a:	e2 30       	cpi	r30, 0x02	; 2
     f2c:	b1 f1       	breq	.+108    	; 0xf9a <MCAL_Dio_WriteSinglePin+0xaa>
     f2e:	e3 30       	cpi	r30, 0x03	; 3
     f30:	09 f0       	breq	.+2      	; 0xf34 <MCAL_Dio_WriteSinglePin+0x44>
     f32:	58 c0       	rjmp	.+176    	; 0xfe4 <MCAL_Dio_WriteSinglePin+0xf4>
     f34:	4b c0       	rjmp	.+150    	; 0xfcc <MCAL_Dio_WriteSinglePin+0xdc>
     f36:	41 30       	cpi	r20, 0x01	; 1
     f38:	59 f4       	brne	.+22     	; 0xf50 <MCAL_Dio_WriteSinglePin+0x60>
     f3a:	2b b3       	in	r18, 0x1b	; 27
     f3c:	81 e0       	ldi	r24, 0x01	; 1
     f3e:	90 e0       	ldi	r25, 0x00	; 0
     f40:	02 c0       	rjmp	.+4      	; 0xf46 <MCAL_Dio_WriteSinglePin+0x56>
     f42:	88 0f       	add	r24, r24
     f44:	99 1f       	adc	r25, r25
     f46:	3a 95       	dec	r19
     f48:	e2 f7       	brpl	.-8      	; 0xf42 <MCAL_Dio_WriteSinglePin+0x52>
     f4a:	28 2b       	or	r18, r24
     f4c:	2b bb       	out	0x1b, r18	; 27
     f4e:	4a c0       	rjmp	.+148    	; 0xfe4 <MCAL_Dio_WriteSinglePin+0xf4>
     f50:	2b b3       	in	r18, 0x1b	; 27
     f52:	81 e0       	ldi	r24, 0x01	; 1
     f54:	90 e0       	ldi	r25, 0x00	; 0
     f56:	02 c0       	rjmp	.+4      	; 0xf5c <MCAL_Dio_WriteSinglePin+0x6c>
     f58:	88 0f       	add	r24, r24
     f5a:	99 1f       	adc	r25, r25
     f5c:	3a 95       	dec	r19
     f5e:	e2 f7       	brpl	.-8      	; 0xf58 <MCAL_Dio_WriteSinglePin+0x68>
     f60:	80 95       	com	r24
     f62:	82 23       	and	r24, r18
     f64:	8b bb       	out	0x1b, r24	; 27
     f66:	3e c0       	rjmp	.+124    	; 0xfe4 <MCAL_Dio_WriteSinglePin+0xf4>
     f68:	41 30       	cpi	r20, 0x01	; 1
     f6a:	59 f4       	brne	.+22     	; 0xf82 <MCAL_Dio_WriteSinglePin+0x92>
     f6c:	28 b3       	in	r18, 0x18	; 24
     f6e:	81 e0       	ldi	r24, 0x01	; 1
     f70:	90 e0       	ldi	r25, 0x00	; 0
     f72:	02 c0       	rjmp	.+4      	; 0xf78 <MCAL_Dio_WriteSinglePin+0x88>
     f74:	88 0f       	add	r24, r24
     f76:	99 1f       	adc	r25, r25
     f78:	3a 95       	dec	r19
     f7a:	e2 f7       	brpl	.-8      	; 0xf74 <MCAL_Dio_WriteSinglePin+0x84>
     f7c:	28 2b       	or	r18, r24
     f7e:	28 bb       	out	0x18, r18	; 24
     f80:	31 c0       	rjmp	.+98     	; 0xfe4 <MCAL_Dio_WriteSinglePin+0xf4>
     f82:	28 b3       	in	r18, 0x18	; 24
     f84:	81 e0       	ldi	r24, 0x01	; 1
     f86:	90 e0       	ldi	r25, 0x00	; 0
     f88:	02 c0       	rjmp	.+4      	; 0xf8e <MCAL_Dio_WriteSinglePin+0x9e>
     f8a:	88 0f       	add	r24, r24
     f8c:	99 1f       	adc	r25, r25
     f8e:	3a 95       	dec	r19
     f90:	e2 f7       	brpl	.-8      	; 0xf8a <MCAL_Dio_WriteSinglePin+0x9a>
     f92:	80 95       	com	r24
     f94:	82 23       	and	r24, r18
     f96:	88 bb       	out	0x18, r24	; 24
     f98:	25 c0       	rjmp	.+74     	; 0xfe4 <MCAL_Dio_WriteSinglePin+0xf4>
     f9a:	41 30       	cpi	r20, 0x01	; 1
     f9c:	59 f4       	brne	.+22     	; 0xfb4 <MCAL_Dio_WriteSinglePin+0xc4>
     f9e:	25 b3       	in	r18, 0x15	; 21
     fa0:	81 e0       	ldi	r24, 0x01	; 1
     fa2:	90 e0       	ldi	r25, 0x00	; 0
     fa4:	02 c0       	rjmp	.+4      	; 0xfaa <MCAL_Dio_WriteSinglePin+0xba>
     fa6:	88 0f       	add	r24, r24
     fa8:	99 1f       	adc	r25, r25
     faa:	3a 95       	dec	r19
     fac:	e2 f7       	brpl	.-8      	; 0xfa6 <MCAL_Dio_WriteSinglePin+0xb6>
     fae:	28 2b       	or	r18, r24
     fb0:	25 bb       	out	0x15, r18	; 21
     fb2:	18 c0       	rjmp	.+48     	; 0xfe4 <MCAL_Dio_WriteSinglePin+0xf4>
     fb4:	25 b3       	in	r18, 0x15	; 21
     fb6:	81 e0       	ldi	r24, 0x01	; 1
     fb8:	90 e0       	ldi	r25, 0x00	; 0
     fba:	02 c0       	rjmp	.+4      	; 0xfc0 <MCAL_Dio_WriteSinglePin+0xd0>
     fbc:	88 0f       	add	r24, r24
     fbe:	99 1f       	adc	r25, r25
     fc0:	3a 95       	dec	r19
     fc2:	e2 f7       	brpl	.-8      	; 0xfbc <MCAL_Dio_WriteSinglePin+0xcc>
     fc4:	80 95       	com	r24
     fc6:	82 23       	and	r24, r18
     fc8:	85 bb       	out	0x15, r24	; 21
     fca:	0c c0       	rjmp	.+24     	; 0xfe4 <MCAL_Dio_WriteSinglePin+0xf4>
     fcc:	41 30       	cpi	r20, 0x01	; 1
     fce:	61 f4       	brne	.+24     	; 0xfe8 <MCAL_Dio_WriteSinglePin+0xf8>
     fd0:	22 b3       	in	r18, 0x12	; 18
     fd2:	81 e0       	ldi	r24, 0x01	; 1
     fd4:	90 e0       	ldi	r25, 0x00	; 0
     fd6:	02 c0       	rjmp	.+4      	; 0xfdc <MCAL_Dio_WriteSinglePin+0xec>
     fd8:	88 0f       	add	r24, r24
     fda:	99 1f       	adc	r25, r25
     fdc:	3a 95       	dec	r19
     fde:	e2 f7       	brpl	.-8      	; 0xfd8 <MCAL_Dio_WriteSinglePin+0xe8>
     fe0:	28 2b       	or	r18, r24
     fe2:	22 bb       	out	0x12, r18	; 18
     fe4:	80 e0       	ldi	r24, 0x00	; 0
     fe6:	08 95       	ret
     fe8:	22 b3       	in	r18, 0x12	; 18
     fea:	81 e0       	ldi	r24, 0x01	; 1
     fec:	90 e0       	ldi	r25, 0x00	; 0
     fee:	02 c0       	rjmp	.+4      	; 0xff4 <MCAL_Dio_WriteSinglePin+0x104>
     ff0:	88 0f       	add	r24, r24
     ff2:	99 1f       	adc	r25, r25
     ff4:	3a 95       	dec	r19
     ff6:	e2 f7       	brpl	.-8      	; 0xff0 <MCAL_Dio_WriteSinglePin+0x100>
     ff8:	80 95       	com	r24
     ffa:	82 23       	and	r24, r18
     ffc:	82 bb       	out	0x12, r24	; 18
     ffe:	80 e0       	ldi	r24, 0x00	; 0
    1000:	08 95       	ret

00001002 <MCAL_Dio_ReadSinglePin>:
    1002:	fc 01       	movw	r30, r24
    1004:	da 01       	movw	r26, r20
    1006:	e0 81       	ld	r30, Z
    1008:	e4 30       	cpi	r30, 0x04	; 4
    100a:	10 f0       	brcs	.+4      	; 0x1010 <MCAL_Dio_ReadSinglePin+0xe>
    100c:	81 e0       	ldi	r24, 0x01	; 1
    100e:	08 95       	ret
    1010:	20 e0       	ldi	r18, 0x00	; 0
    1012:	30 e0       	ldi	r19, 0x00	; 0
    1014:	70 e0       	ldi	r23, 0x00	; 0
    1016:	cb 01       	movw	r24, r22
    1018:	02 2e       	mov	r0, r18
    101a:	02 c0       	rjmp	.+4      	; 0x1020 <MCAL_Dio_ReadSinglePin+0x1e>
    101c:	95 95       	asr	r25
    101e:	87 95       	ror	r24
    1020:	0a 94       	dec	r0
    1022:	e2 f7       	brpl	.-8      	; 0x101c <MCAL_Dio_ReadSinglePin+0x1a>
    1024:	80 fd       	sbrc	r24, 0
    1026:	05 c0       	rjmp	.+10     	; 0x1032 <MCAL_Dio_ReadSinglePin+0x30>
    1028:	2f 5f       	subi	r18, 0xFF	; 255
    102a:	3f 4f       	sbci	r19, 0xFF	; 255
    102c:	28 30       	cpi	r18, 0x08	; 8
    102e:	31 05       	cpc	r19, r1
    1030:	91 f7       	brne	.-28     	; 0x1016 <MCAL_Dio_ReadSinglePin+0x14>
    1032:	e1 30       	cpi	r30, 0x01	; 1
    1034:	49 f0       	breq	.+18     	; 0x1048 <MCAL_Dio_ReadSinglePin+0x46>
    1036:	e1 30       	cpi	r30, 0x01	; 1
    1038:	28 f0       	brcs	.+10     	; 0x1044 <MCAL_Dio_ReadSinglePin+0x42>
    103a:	e2 30       	cpi	r30, 0x02	; 2
    103c:	39 f0       	breq	.+14     	; 0x104c <MCAL_Dio_ReadSinglePin+0x4a>
    103e:	e3 30       	cpi	r30, 0x03	; 3
    1040:	71 f4       	brne	.+28     	; 0x105e <MCAL_Dio_ReadSinglePin+0x5c>
    1042:	0f c0       	rjmp	.+30     	; 0x1062 <MCAL_Dio_ReadSinglePin+0x60>
    1044:	89 b3       	in	r24, 0x19	; 25
    1046:	03 c0       	rjmp	.+6      	; 0x104e <MCAL_Dio_ReadSinglePin+0x4c>
    1048:	86 b3       	in	r24, 0x16	; 22
    104a:	01 c0       	rjmp	.+2      	; 0x104e <MCAL_Dio_ReadSinglePin+0x4c>
    104c:	83 b3       	in	r24, 0x13	; 19
    104e:	90 e0       	ldi	r25, 0x00	; 0
    1050:	02 c0       	rjmp	.+4      	; 0x1056 <MCAL_Dio_ReadSinglePin+0x54>
    1052:	95 95       	asr	r25
    1054:	87 95       	ror	r24
    1056:	2a 95       	dec	r18
    1058:	e2 f7       	brpl	.-8      	; 0x1052 <MCAL_Dio_ReadSinglePin+0x50>
    105a:	81 70       	andi	r24, 0x01	; 1
    105c:	8c 93       	st	X, r24
    105e:	80 e0       	ldi	r24, 0x00	; 0
    1060:	08 95       	ret
    1062:	80 b3       	in	r24, 0x10	; 16
    1064:	90 e0       	ldi	r25, 0x00	; 0
    1066:	02 c0       	rjmp	.+4      	; 0x106c <MCAL_Dio_ReadSinglePin+0x6a>
    1068:	95 95       	asr	r25
    106a:	87 95       	ror	r24
    106c:	2a 95       	dec	r18
    106e:	e2 f7       	brpl	.-8      	; 0x1068 <MCAL_Dio_ReadSinglePin+0x66>
    1070:	81 70       	andi	r24, 0x01	; 1
    1072:	8c 93       	st	X, r24
    1074:	80 e0       	ldi	r24, 0x00	; 0
    1076:	08 95       	ret

00001078 <MCAL_Dio_TogglePin>:
    1078:	fc 01       	movw	r30, r24
    107a:	e0 81       	ld	r30, Z
    107c:	e4 30       	cpi	r30, 0x04	; 4
    107e:	10 f0       	brcs	.+4      	; 0x1084 <MCAL_Dio_TogglePin+0xc>
    1080:	81 e0       	ldi	r24, 0x01	; 1
    1082:	08 95       	ret
    1084:	20 e0       	ldi	r18, 0x00	; 0
    1086:	30 e0       	ldi	r19, 0x00	; 0
    1088:	70 e0       	ldi	r23, 0x00	; 0
    108a:	cb 01       	movw	r24, r22
    108c:	02 2e       	mov	r0, r18
    108e:	02 c0       	rjmp	.+4      	; 0x1094 <MCAL_Dio_TogglePin+0x1c>
    1090:	95 95       	asr	r25
    1092:	87 95       	ror	r24
    1094:	0a 94       	dec	r0
    1096:	e2 f7       	brpl	.-8      	; 0x1090 <MCAL_Dio_TogglePin+0x18>
    1098:	80 ff       	sbrs	r24, 0
    109a:	02 c0       	rjmp	.+4      	; 0x10a0 <MCAL_Dio_TogglePin+0x28>
    109c:	32 2f       	mov	r19, r18
    109e:	05 c0       	rjmp	.+10     	; 0x10aa <MCAL_Dio_TogglePin+0x32>
    10a0:	2f 5f       	subi	r18, 0xFF	; 255
    10a2:	3f 4f       	sbci	r19, 0xFF	; 255
    10a4:	28 30       	cpi	r18, 0x08	; 8
    10a6:	31 05       	cpc	r19, r1
    10a8:	81 f7       	brne	.-32     	; 0x108a <MCAL_Dio_TogglePin+0x12>
    10aa:	e1 30       	cpi	r30, 0x01	; 1
    10ac:	91 f0       	breq	.+36     	; 0x10d2 <MCAL_Dio_TogglePin+0x5a>
    10ae:	e1 30       	cpi	r30, 0x01	; 1
    10b0:	28 f0       	brcs	.+10     	; 0x10bc <MCAL_Dio_TogglePin+0x44>
    10b2:	e2 30       	cpi	r30, 0x02	; 2
    10b4:	81 f0       	breq	.+32     	; 0x10d6 <MCAL_Dio_TogglePin+0x5e>
    10b6:	e3 30       	cpi	r30, 0x03	; 3
    10b8:	c1 f4       	brne	.+48     	; 0x10ea <MCAL_Dio_TogglePin+0x72>
    10ba:	19 c0       	rjmp	.+50     	; 0x10ee <MCAL_Dio_TogglePin+0x76>
    10bc:	2b b3       	in	r18, 0x1b	; 27
    10be:	81 e0       	ldi	r24, 0x01	; 1
    10c0:	90 e0       	ldi	r25, 0x00	; 0
    10c2:	02 c0       	rjmp	.+4      	; 0x10c8 <MCAL_Dio_TogglePin+0x50>
    10c4:	88 0f       	add	r24, r24
    10c6:	99 1f       	adc	r25, r25
    10c8:	3a 95       	dec	r19
    10ca:	e2 f7       	brpl	.-8      	; 0x10c4 <MCAL_Dio_TogglePin+0x4c>
    10cc:	28 27       	eor	r18, r24
    10ce:	2b bb       	out	0x1b, r18	; 27
    10d0:	0c c0       	rjmp	.+24     	; 0x10ea <MCAL_Dio_TogglePin+0x72>
    10d2:	28 b3       	in	r18, 0x18	; 24
    10d4:	01 c0       	rjmp	.+2      	; 0x10d8 <MCAL_Dio_TogglePin+0x60>
    10d6:	25 b3       	in	r18, 0x15	; 21
    10d8:	81 e0       	ldi	r24, 0x01	; 1
    10da:	90 e0       	ldi	r25, 0x00	; 0
    10dc:	02 c0       	rjmp	.+4      	; 0x10e2 <MCAL_Dio_TogglePin+0x6a>
    10de:	88 0f       	add	r24, r24
    10e0:	99 1f       	adc	r25, r25
    10e2:	3a 95       	dec	r19
    10e4:	e2 f7       	brpl	.-8      	; 0x10de <MCAL_Dio_TogglePin+0x66>
    10e6:	28 27       	eor	r18, r24
    10e8:	28 bb       	out	0x18, r18	; 24
    10ea:	80 e0       	ldi	r24, 0x00	; 0
    10ec:	08 95       	ret
    10ee:	22 b3       	in	r18, 0x12	; 18
    10f0:	81 e0       	ldi	r24, 0x01	; 1
    10f2:	90 e0       	ldi	r25, 0x00	; 0
    10f4:	02 c0       	rjmp	.+4      	; 0x10fa <MCAL_Dio_TogglePin+0x82>
    10f6:	88 0f       	add	r24, r24
    10f8:	99 1f       	adc	r25, r25
    10fa:	3a 95       	dec	r19
    10fc:	e2 f7       	brpl	.-8      	; 0x10f6 <MCAL_Dio_TogglePin+0x7e>
    10fe:	28 27       	eor	r18, r24
    1100:	28 bb       	out	0x18, r18	; 24
    1102:	80 e0       	ldi	r24, 0x00	; 0
    1104:	08 95       	ret

00001106 <MCAL_ADC_INIT>:
    1106:	17 b8       	out	0x07, r1	; 7
    1108:	3f 98       	cbi	0x07, 7	; 7
    110a:	3e 9a       	sbi	0x07, 6	; 7
    110c:	86 b1       	in	r24, 0x06	; 6
    110e:	88 7f       	andi	r24, 0xF8	; 248
    1110:	86 b9       	out	0x06, r24	; 6
    1112:	80 91 af 00 	lds	r24, 0x00AF
    1116:	87 70       	andi	r24, 0x07	; 7
    1118:	80 93 af 00 	sts	0x00AF, r24
    111c:	96 b1       	in	r25, 0x06	; 6
    111e:	89 2b       	or	r24, r25
    1120:	86 b9       	out	0x06, r24	; 6
    1122:	37 9a       	sbi	0x06, 7	; 6
    1124:	3d 98       	cbi	0x07, 5	; 7
    1126:	81 e0       	ldi	r24, 0x01	; 1
    1128:	08 95       	ret

0000112a <MCAL_ADC_READ>:
    112a:	97 b1       	in	r25, 0x07	; 7
    112c:	90 7e       	andi	r25, 0xE0	; 224
    112e:	97 b9       	out	0x07, r25	; 7
    1130:	97 b1       	in	r25, 0x07	; 7
    1132:	98 2b       	or	r25, r24
    1134:	97 b9       	out	0x07, r25	; 7
    1136:	36 9a       	sbi	0x06, 6	; 6
    1138:	36 99       	sbic	0x06, 6	; 6
    113a:	fe cf       	rjmp	.-4      	; 0x1138 <MCAL_ADC_READ+0xe>
    113c:	24 b1       	in	r18, 0x04	; 4
    113e:	35 b1       	in	r19, 0x05	; 5
    1140:	c9 01       	movw	r24, r18
    1142:	08 95       	ret

00001144 <HAL_Solenoid_Close>:
    1144:	df 93       	push	r29
    1146:	cf 93       	push	r28
    1148:	00 d0       	rcall	.+0      	; 0x114a <HAL_Solenoid_Close+0x6>
    114a:	0f 92       	push	r0
    114c:	cd b7       	in	r28, 0x3d	; 61
    114e:	de b7       	in	r29, 0x3e	; 62
    1150:	82 e0       	ldi	r24, 0x02	; 2
    1152:	89 83       	std	Y+1, r24	; 0x01
    1154:	80 e8       	ldi	r24, 0x80	; 128
    1156:	8a 83       	std	Y+2, r24	; 0x02
    1158:	8f ef       	ldi	r24, 0xFF	; 255
    115a:	8b 83       	std	Y+3, r24	; 0x03
    115c:	ce 01       	movw	r24, r28
    115e:	01 96       	adiw	r24, 0x01	; 1
    1160:	60 e0       	ldi	r22, 0x00	; 0
    1162:	0e 94 4d 07 	call	0xe9a	; 0xe9a <MCAL_Dio_WritePin>
    1166:	80 e0       	ldi	r24, 0x00	; 0
    1168:	0f 90       	pop	r0
    116a:	0f 90       	pop	r0
    116c:	0f 90       	pop	r0
    116e:	cf 91       	pop	r28
    1170:	df 91       	pop	r29
    1172:	08 95       	ret

00001174 <HAL_Solenoid_Open>:
    1174:	df 93       	push	r29
    1176:	cf 93       	push	r28
    1178:	00 d0       	rcall	.+0      	; 0x117a <HAL_Solenoid_Open+0x6>
    117a:	0f 92       	push	r0
    117c:	cd b7       	in	r28, 0x3d	; 61
    117e:	de b7       	in	r29, 0x3e	; 62
    1180:	82 e0       	ldi	r24, 0x02	; 2
    1182:	89 83       	std	Y+1, r24	; 0x01
    1184:	80 e8       	ldi	r24, 0x80	; 128
    1186:	8a 83       	std	Y+2, r24	; 0x02
    1188:	8f ef       	ldi	r24, 0xFF	; 255
    118a:	8b 83       	std	Y+3, r24	; 0x03
    118c:	ce 01       	movw	r24, r28
    118e:	01 96       	adiw	r24, 0x01	; 1
    1190:	6f ef       	ldi	r22, 0xFF	; 255
    1192:	0e 94 4d 07 	call	0xe9a	; 0xe9a <MCAL_Dio_WritePin>
    1196:	80 e0       	ldi	r24, 0x00	; 0
    1198:	0f 90       	pop	r0
    119a:	0f 90       	pop	r0
    119c:	0f 90       	pop	r0
    119e:	cf 91       	pop	r28
    11a0:	df 91       	pop	r29
    11a2:	08 95       	ret

000011a4 <HAL_Solenoid_init>:
    11a4:	df 93       	push	r29
    11a6:	cf 93       	push	r28
    11a8:	00 d0       	rcall	.+0      	; 0x11aa <HAL_Solenoid_init+0x6>
    11aa:	0f 92       	push	r0
    11ac:	cd b7       	in	r28, 0x3d	; 61
    11ae:	de b7       	in	r29, 0x3e	; 62
    11b0:	82 e0       	ldi	r24, 0x02	; 2
    11b2:	89 83       	std	Y+1, r24	; 0x01
    11b4:	80 e8       	ldi	r24, 0x80	; 128
    11b6:	8a 83       	std	Y+2, r24	; 0x02
    11b8:	8f ef       	ldi	r24, 0xFF	; 255
    11ba:	8b 83       	std	Y+3, r24	; 0x03
    11bc:	ce 01       	movw	r24, r28
    11be:	01 96       	adiw	r24, 0x01	; 1
    11c0:	0e 94 77 06 	call	0xcee	; 0xcee <MCAL_Dio_Init>
    11c4:	80 e0       	ldi	r24, 0x00	; 0
    11c6:	0f 90       	pop	r0
    11c8:	0f 90       	pop	r0
    11ca:	0f 90       	pop	r0
    11cc:	cf 91       	pop	r28
    11ce:	df 91       	pop	r29
    11d0:	08 95       	ret

000011d2 <HAL_SERVO_Increment>:
    11d2:	0f 93       	push	r16
    11d4:	1f 93       	push	r17
    11d6:	8c 01       	movw	r16, r24
    11d8:	82 e0       	ldi	r24, 0x02	; 2
    11da:	0e 94 9e 02 	call	0x53c	; 0x53c <Timer1_OCRA1Mode>
    11de:	0e 53       	subi	r16, 0x3E	; 62
    11e0:	1f 4f       	sbci	r17, 0xFF	; 255
    11e2:	1b bd       	out	0x2b, r17	; 43
    11e4:	0a bd       	out	0x2a, r16	; 42
    11e6:	1f 91       	pop	r17
    11e8:	0f 91       	pop	r16
    11ea:	08 95       	ret

000011ec <HAL_SERVO_Write>:
    11ec:	1f 93       	push	r17
    11ee:	18 2f       	mov	r17, r24
    11f0:	82 e0       	ldi	r24, 0x02	; 2
    11f2:	0e 94 9e 02 	call	0x53c	; 0x53c <Timer1_OCRA1Mode>
    11f6:	28 2f       	mov	r18, r24
    11f8:	12 30       	cpi	r17, 0x02	; 2
    11fa:	39 f0       	breq	.+14     	; 0x120a <HAL_SERVO_Write+0x1e>
    11fc:	13 30       	cpi	r17, 0x03	; 3
    11fe:	51 f0       	breq	.+20     	; 0x1214 <HAL_SERVO_Write+0x28>
    1200:	11 30       	cpi	r17, 0x01	; 1
    1202:	51 f4       	brne	.+20     	; 0x1218 <HAL_SERVO_Write+0x2c>
    1204:	8a eb       	ldi	r24, 0xBA	; 186
    1206:	90 e0       	ldi	r25, 0x00	; 0
    1208:	02 c0       	rjmp	.+4      	; 0x120e <HAL_SERVO_Write+0x22>
    120a:	8c e2       	ldi	r24, 0x2C	; 44
    120c:	91 e0       	ldi	r25, 0x01	; 1
    120e:	9b bd       	out	0x2b, r25	; 43
    1210:	8a bd       	out	0x2a, r24	; 42
    1212:	02 c0       	rjmp	.+4      	; 0x1218 <HAL_SERVO_Write+0x2c>
    1214:	1b bc       	out	0x2b, r1	; 43
    1216:	1a bc       	out	0x2a, r1	; 42
    1218:	82 2f       	mov	r24, r18
    121a:	1f 91       	pop	r17
    121c:	08 95       	ret

0000121e <HAL_SERVO_Write_CCW>:
    121e:	82 e0       	ldi	r24, 0x02	; 2
    1220:	0e 94 f6 08 	call	0x11ec	; 0x11ec <HAL_SERVO_Write>
    1224:	08 95       	ret

00001226 <HAL_SERVO_Write_CW>:
    1226:	83 e0       	ldi	r24, 0x03	; 3
    1228:	0e 94 f6 08 	call	0x11ec	; 0x11ec <HAL_SERVO_Write>
    122c:	08 95       	ret

0000122e <HAL_SERVO_INIT>:
    122e:	83 e0       	ldi	r24, 0x03	; 3
    1230:	63 e0       	ldi	r22, 0x03	; 3
    1232:	0e 94 59 02 	call	0x4b2	; 0x4b2 <Timer1_Init>
    1236:	1d bc       	out	0x2d, r1	; 45
    1238:	1c bc       	out	0x2c, r1	; 44
    123a:	2f e3       	ldi	r18, 0x3F	; 63
    123c:	3c e9       	ldi	r19, 0x9C	; 156
    123e:	37 bd       	out	0x27, r19	; 39
    1240:	26 bd       	out	0x26, r18	; 38
    1242:	1b bc       	out	0x2b, r1	; 43
    1244:	1a bc       	out	0x2a, r1	; 42
    1246:	08 95       	ret

00001248 <HAL_RTC_ReadDate>:
    1248:	cf 93       	push	r28
    124a:	df 93       	push	r29
    124c:	ec 01       	movw	r28, r24
    124e:	88 81       	ld	r24, Y
    1250:	80 32       	cpi	r24, 0x20	; 32
    1252:	e0 f4       	brcc	.+56     	; 0x128c <HAL_RTC_ReadDate+0x44>
    1254:	89 81       	ldd	r24, Y+1	; 0x01
    1256:	8d 30       	cpi	r24, 0x0D	; 13
    1258:	c8 f4       	brcc	.+50     	; 0x128c <HAL_RTC_ReadDate+0x44>
    125a:	80 ed       	ldi	r24, 0xD0	; 208
    125c:	0e 94 67 04 	call	0x8ce	; 0x8ce <I2C_Start>
    1260:	83 e0       	ldi	r24, 0x03	; 3
    1262:	0e 94 c4 04 	call	0x988	; 0x988 <I2C_Write>
    1266:	81 ed       	ldi	r24, 0xD1	; 209
    1268:	0e 94 85 04 	call	0x90a	; 0x90a <I2C_Repeated_Start>
    126c:	0e 94 d6 04 	call	0x9ac	; 0x9ac <I2C_Read_Ack>
    1270:	8b 83       	std	Y+3, r24	; 0x03
    1272:	0e 94 d6 04 	call	0x9ac	; 0x9ac <I2C_Read_Ack>
    1276:	88 83       	st	Y, r24
    1278:	0e 94 d6 04 	call	0x9ac	; 0x9ac <I2C_Read_Ack>
    127c:	89 83       	std	Y+1, r24	; 0x01
    127e:	0e 94 de 04 	call	0x9bc	; 0x9bc <I2C_Read_Nack>
    1282:	8a 83       	std	Y+2, r24	; 0x02
    1284:	0e 94 a3 04 	call	0x946	; 0x946 <I2C_Stop>
    1288:	80 e0       	ldi	r24, 0x00	; 0
    128a:	01 c0       	rjmp	.+2      	; 0x128e <HAL_RTC_ReadDate+0x46>
    128c:	82 e0       	ldi	r24, 0x02	; 2
    128e:	df 91       	pop	r29
    1290:	cf 91       	pop	r28
    1292:	08 95       	ret

00001294 <HAL_RTC_ReadTime>:
    1294:	0f 93       	push	r16
    1296:	1f 93       	push	r17
    1298:	8c 01       	movw	r16, r24
    129a:	80 ed       	ldi	r24, 0xD0	; 208
    129c:	0e 94 67 04 	call	0x8ce	; 0x8ce <I2C_Start>
    12a0:	80 e0       	ldi	r24, 0x00	; 0
    12a2:	0e 94 c4 04 	call	0x988	; 0x988 <I2C_Write>
    12a6:	81 ed       	ldi	r24, 0xD1	; 209
    12a8:	0e 94 85 04 	call	0x90a	; 0x90a <I2C_Repeated_Start>
    12ac:	0e 94 d6 04 	call	0x9ac	; 0x9ac <I2C_Read_Ack>
    12b0:	f8 01       	movw	r30, r16
    12b2:	86 83       	std	Z+6, r24	; 0x06
    12b4:	0e 94 d6 04 	call	0x9ac	; 0x9ac <I2C_Read_Ack>
    12b8:	f8 01       	movw	r30, r16
    12ba:	85 83       	std	Z+5, r24	; 0x05
    12bc:	0e 94 de 04 	call	0x9bc	; 0x9bc <I2C_Read_Nack>
    12c0:	f8 01       	movw	r30, r16
    12c2:	84 83       	std	Z+4, r24	; 0x04
    12c4:	0e 94 a3 04 	call	0x946	; 0x946 <I2C_Stop>
    12c8:	80 e0       	ldi	r24, 0x00	; 0
    12ca:	1f 91       	pop	r17
    12cc:	0f 91       	pop	r16
    12ce:	08 95       	ret

000012d0 <HAL_RTC_Init>:
    12d0:	0f 93       	push	r16
    12d2:	1f 93       	push	r17
    12d4:	8c 01       	movw	r16, r24
    12d6:	80 ed       	ldi	r24, 0xD0	; 208
    12d8:	0e 94 67 04 	call	0x8ce	; 0x8ce <I2C_Start>
    12dc:	80 e0       	ldi	r24, 0x00	; 0
    12de:	0e 94 c4 04 	call	0x988	; 0x988 <I2C_Write>
    12e2:	f8 01       	movw	r30, r16
    12e4:	46 81       	ldd	r20, Z+6	; 0x06
    12e6:	84 2f       	mov	r24, r20
    12e8:	6a e0       	ldi	r22, 0x0A	; 10
    12ea:	0e 94 c7 10 	call	0x218e	; 0x218e <__udivmodqi4>
    12ee:	28 2f       	mov	r18, r24
    12f0:	30 e0       	ldi	r19, 0x00	; 0
    12f2:	f4 e0       	ldi	r31, 0x04	; 4
    12f4:	22 0f       	add	r18, r18
    12f6:	33 1f       	adc	r19, r19
    12f8:	fa 95       	dec	r31
    12fa:	e1 f7       	brne	.-8      	; 0x12f4 <HAL_RTC_Init+0x24>
    12fc:	84 2f       	mov	r24, r20
    12fe:	0e 94 c7 10 	call	0x218e	; 0x218e <__udivmodqi4>
    1302:	89 2f       	mov	r24, r25
    1304:	82 2b       	or	r24, r18
    1306:	0e 94 c4 04 	call	0x988	; 0x988 <I2C_Write>
    130a:	f8 01       	movw	r30, r16
    130c:	45 81       	ldd	r20, Z+5	; 0x05
    130e:	84 2f       	mov	r24, r20
    1310:	6a e0       	ldi	r22, 0x0A	; 10
    1312:	0e 94 c7 10 	call	0x218e	; 0x218e <__udivmodqi4>
    1316:	28 2f       	mov	r18, r24
    1318:	30 e0       	ldi	r19, 0x00	; 0
    131a:	e4 e0       	ldi	r30, 0x04	; 4
    131c:	22 0f       	add	r18, r18
    131e:	33 1f       	adc	r19, r19
    1320:	ea 95       	dec	r30
    1322:	e1 f7       	brne	.-8      	; 0x131c <HAL_RTC_Init+0x4c>
    1324:	84 2f       	mov	r24, r20
    1326:	0e 94 c7 10 	call	0x218e	; 0x218e <__udivmodqi4>
    132a:	89 2f       	mov	r24, r25
    132c:	82 2b       	or	r24, r18
    132e:	0e 94 c4 04 	call	0x988	; 0x988 <I2C_Write>
    1332:	f8 01       	movw	r30, r16
    1334:	44 81       	ldd	r20, Z+4	; 0x04
    1336:	84 2f       	mov	r24, r20
    1338:	6a e0       	ldi	r22, 0x0A	; 10
    133a:	0e 94 c7 10 	call	0x218e	; 0x218e <__udivmodqi4>
    133e:	28 2f       	mov	r18, r24
    1340:	30 e0       	ldi	r19, 0x00	; 0
    1342:	74 e0       	ldi	r23, 0x04	; 4
    1344:	22 0f       	add	r18, r18
    1346:	33 1f       	adc	r19, r19
    1348:	7a 95       	dec	r23
    134a:	e1 f7       	brne	.-8      	; 0x1344 <HAL_RTC_Init+0x74>
    134c:	84 2f       	mov	r24, r20
    134e:	0e 94 c7 10 	call	0x218e	; 0x218e <__udivmodqi4>
    1352:	89 2f       	mov	r24, r25
    1354:	82 2b       	or	r24, r18
    1356:	0e 94 c4 04 	call	0x988	; 0x988 <I2C_Write>
    135a:	0e 94 a3 04 	call	0x946	; 0x946 <I2C_Stop>
    135e:	80 ed       	ldi	r24, 0xD0	; 208
    1360:	0e 94 67 04 	call	0x8ce	; 0x8ce <I2C_Start>
    1364:	83 e0       	ldi	r24, 0x03	; 3
    1366:	0e 94 c4 04 	call	0x988	; 0x988 <I2C_Write>
    136a:	f8 01       	movw	r30, r16
    136c:	83 81       	ldd	r24, Z+3	; 0x03
    136e:	0e 94 c4 04 	call	0x988	; 0x988 <I2C_Write>
    1372:	f8 01       	movw	r30, r16
    1374:	40 81       	ld	r20, Z
    1376:	84 2f       	mov	r24, r20
    1378:	6a e0       	ldi	r22, 0x0A	; 10
    137a:	0e 94 c7 10 	call	0x218e	; 0x218e <__udivmodqi4>
    137e:	28 2f       	mov	r18, r24
    1380:	30 e0       	ldi	r19, 0x00	; 0
    1382:	54 e0       	ldi	r21, 0x04	; 4
    1384:	22 0f       	add	r18, r18
    1386:	33 1f       	adc	r19, r19
    1388:	5a 95       	dec	r21
    138a:	e1 f7       	brne	.-8      	; 0x1384 <HAL_RTC_Init+0xb4>
    138c:	84 2f       	mov	r24, r20
    138e:	0e 94 c7 10 	call	0x218e	; 0x218e <__udivmodqi4>
    1392:	89 2f       	mov	r24, r25
    1394:	82 2b       	or	r24, r18
    1396:	0e 94 c4 04 	call	0x988	; 0x988 <I2C_Write>
    139a:	f8 01       	movw	r30, r16
    139c:	41 81       	ldd	r20, Z+1	; 0x01
    139e:	84 2f       	mov	r24, r20
    13a0:	6a e0       	ldi	r22, 0x0A	; 10
    13a2:	0e 94 c7 10 	call	0x218e	; 0x218e <__udivmodqi4>
    13a6:	28 2f       	mov	r18, r24
    13a8:	30 e0       	ldi	r19, 0x00	; 0
    13aa:	94 e0       	ldi	r25, 0x04	; 4
    13ac:	22 0f       	add	r18, r18
    13ae:	33 1f       	adc	r19, r19
    13b0:	9a 95       	dec	r25
    13b2:	e1 f7       	brne	.-8      	; 0x13ac <HAL_RTC_Init+0xdc>
    13b4:	84 2f       	mov	r24, r20
    13b6:	0e 94 c7 10 	call	0x218e	; 0x218e <__udivmodqi4>
    13ba:	89 2f       	mov	r24, r25
    13bc:	82 2b       	or	r24, r18
    13be:	0e 94 c4 04 	call	0x988	; 0x988 <I2C_Write>
    13c2:	f8 01       	movw	r30, r16
    13c4:	42 81       	ldd	r20, Z+2	; 0x02
    13c6:	84 2f       	mov	r24, r20
    13c8:	6a e0       	ldi	r22, 0x0A	; 10
    13ca:	0e 94 c7 10 	call	0x218e	; 0x218e <__udivmodqi4>
    13ce:	28 2f       	mov	r18, r24
    13d0:	30 e0       	ldi	r19, 0x00	; 0
    13d2:	84 e0       	ldi	r24, 0x04	; 4
    13d4:	22 0f       	add	r18, r18
    13d6:	33 1f       	adc	r19, r19
    13d8:	8a 95       	dec	r24
    13da:	e1 f7       	brne	.-8      	; 0x13d4 <HAL_RTC_Init+0x104>
    13dc:	84 2f       	mov	r24, r20
    13de:	0e 94 c7 10 	call	0x218e	; 0x218e <__udivmodqi4>
    13e2:	89 2f       	mov	r24, r25
    13e4:	82 2b       	or	r24, r18
    13e6:	0e 94 c4 04 	call	0x988	; 0x988 <I2C_Write>
    13ea:	0e 94 a3 04 	call	0x946	; 0x946 <I2C_Stop>
    13ee:	80 e0       	ldi	r24, 0x00	; 0
    13f0:	1f 91       	pop	r17
    13f2:	0f 91       	pop	r16
    13f4:	08 95       	ret

000013f6 <Login>:
    13f6:	0f 93       	push	r16
    13f8:	1f 93       	push	r17
    13fa:	cf 93       	push	r28
    13fc:	df 93       	push	r29
    13fe:	0e 94 4e 0e 	call	0x1c9c	; 0x1c9c <HAL_LCD_clearScreen>
    1402:	84 ef       	ldi	r24, 0xF4	; 244
    1404:	91 e0       	ldi	r25, 0x01	; 1
    1406:	20 e9       	ldi	r18, 0x90	; 144
    1408:	31 e0       	ldi	r19, 0x01	; 1
    140a:	f9 01       	movw	r30, r18
    140c:	31 97       	sbiw	r30, 0x01	; 1
    140e:	f1 f7       	brne	.-4      	; 0x140c <Login+0x16>
    1410:	01 97       	sbiw	r24, 0x01	; 1
    1412:	d9 f7       	brne	.-10     	; 0x140a <Login+0x14>
    1414:	84 e8       	ldi	r24, 0x84	; 132
    1416:	90 e0       	ldi	r25, 0x00	; 0
    1418:	61 e0       	ldi	r22, 0x01	; 1
    141a:	41 e0       	ldi	r20, 0x01	; 1
    141c:	0e 94 41 0e 	call	0x1c82	; 0x1c82 <HAL_LCD_displaystringRowColumn>
    1420:	84 ef       	ldi	r24, 0xF4	; 244
    1422:	91 e0       	ldi	r25, 0x01	; 1
    1424:	20 e9       	ldi	r18, 0x90	; 144
    1426:	31 e0       	ldi	r19, 0x01	; 1
    1428:	f9 01       	movw	r30, r18
    142a:	31 97       	sbiw	r30, 0x01	; 1
    142c:	f1 f7       	brne	.-4      	; 0x142a <Login+0x34>
    142e:	01 97       	sbiw	r24, 0x01	; 1
    1430:	d9 f7       	brne	.-10     	; 0x1428 <Login+0x32>
    1432:	c8 e1       	ldi	r28, 0x18	; 24
    1434:	d1 e0       	ldi	r29, 0x01	; 1
    1436:	00 e9       	ldi	r16, 0x90	; 144
    1438:	11 e0       	ldi	r17, 0x01	; 1
    143a:	0e 94 b9 01 	call	0x372	; 0x372 <MCAL_UART_receive_sysch>
    143e:	80 93 1c 01 	sts	0x011C, r24
    1442:	88 83       	st	Y, r24
    1444:	8a e2       	ldi	r24, 0x2A	; 42
    1446:	0e 94 17 0c 	call	0x182e	; 0x182e <HAL_LCD_sendCharacter>
    144a:	88 ee       	ldi	r24, 0xE8	; 232
    144c:	93 e0       	ldi	r25, 0x03	; 3
    144e:	f8 01       	movw	r30, r16
    1450:	31 97       	sbiw	r30, 0x01	; 1
    1452:	f1 f7       	brne	.-4      	; 0x1450 <Login+0x5a>
    1454:	01 97       	sbiw	r24, 0x01	; 1
    1456:	d9 f7       	brne	.-10     	; 0x144e <Login+0x58>
    1458:	21 96       	adiw	r28, 0x01	; 1
    145a:	81 e0       	ldi	r24, 0x01	; 1
    145c:	cc 31       	cpi	r28, 0x1C	; 28
    145e:	d8 07       	cpc	r29, r24
    1460:	61 f7       	brne	.-40     	; 0x143a <Login+0x44>
    1462:	81 e1       	ldi	r24, 0x11	; 17
    1464:	93 e0       	ldi	r25, 0x03	; 3
    1466:	61 e2       	ldi	r22, 0x21	; 33
    1468:	71 e0       	ldi	r23, 0x01	; 1
    146a:	0e 94 01 06 	call	0xc02	; 0xc02 <EEPROM_readByte>
    146e:	81 e1       	ldi	r24, 0x11	; 17
    1470:	93 e0       	ldi	r25, 0x03	; 3
    1472:	6b e1       	ldi	r22, 0x1B	; 27
    1474:	71 e0       	ldi	r23, 0x01	; 1
    1476:	0e 94 01 06 	call	0xc02	; 0xc02 <EEPROM_readByte>
    147a:	81 e1       	ldi	r24, 0x11	; 17
    147c:	93 e0       	ldi	r25, 0x03	; 3
    147e:	60 e2       	ldi	r22, 0x20	; 32
    1480:	71 e0       	ldi	r23, 0x01	; 1
    1482:	0e 94 01 06 	call	0xc02	; 0xc02 <EEPROM_readByte>
    1486:	81 e1       	ldi	r24, 0x11	; 17
    1488:	93 e0       	ldi	r25, 0x03	; 3
    148a:	69 e1       	ldi	r22, 0x19	; 25
    148c:	71 e0       	ldi	r23, 0x01	; 1
    148e:	0e 94 01 06 	call	0xc02	; 0xc02 <EEPROM_readByte>
    1492:	90 91 21 01 	lds	r25, 0x0121
    1496:	80 91 18 01 	lds	r24, 0x0118
    149a:	98 17       	cp	r25, r24
    149c:	99 f4       	brne	.+38     	; 0x14c4 <Login+0xce>
    149e:	20 91 1b 01 	lds	r18, 0x011B
    14a2:	80 91 19 01 	lds	r24, 0x0119
    14a6:	28 17       	cp	r18, r24
    14a8:	69 f4       	brne	.+26     	; 0x14c4 <Login+0xce>
    14aa:	90 91 20 01 	lds	r25, 0x0120
    14ae:	80 91 1a 01 	lds	r24, 0x011A
    14b2:	98 17       	cp	r25, r24
    14b4:	39 f4       	brne	.+14     	; 0x14c4 <Login+0xce>
    14b6:	80 91 19 01 	lds	r24, 0x0119
    14ba:	82 17       	cp	r24, r18
    14bc:	19 f4       	brne	.+6      	; 0x14c4 <Login+0xce>
    14be:	81 e0       	ldi	r24, 0x01	; 1
    14c0:	80 93 1e 01 	sts	0x011E, r24
    14c4:	80 91 1e 01 	lds	r24, 0x011E
    14c8:	df 91       	pop	r29
    14ca:	cf 91       	pop	r28
    14cc:	1f 91       	pop	r17
    14ce:	0f 91       	pop	r16
    14d0:	08 95       	ret

000014d2 <Enter_Password>:
    14d2:	0f 93       	push	r16
    14d4:	1f 93       	push	r17
    14d6:	cf 93       	push	r28
    14d8:	df 93       	push	r29
    14da:	10 92 22 01 	sts	0x0122, r1
    14de:	0e 94 4e 0e 	call	0x1c9c	; 0x1c9c <HAL_LCD_clearScreen>
    14e2:	84 ef       	ldi	r24, 0xF4	; 244
    14e4:	91 e0       	ldi	r25, 0x01	; 1
    14e6:	20 e9       	ldi	r18, 0x90	; 144
    14e8:	31 e0       	ldi	r19, 0x01	; 1
    14ea:	f9 01       	movw	r30, r18
    14ec:	31 97       	sbiw	r30, 0x01	; 1
    14ee:	f1 f7       	brne	.-4      	; 0x14ec <Enter_Password+0x1a>
    14f0:	01 97       	sbiw	r24, 0x01	; 1
    14f2:	d9 f7       	brne	.-10     	; 0x14ea <Enter_Password+0x18>
    14f4:	84 e8       	ldi	r24, 0x84	; 132
    14f6:	90 e0       	ldi	r25, 0x00	; 0
    14f8:	61 e0       	ldi	r22, 0x01	; 1
    14fa:	41 e0       	ldi	r20, 0x01	; 1
    14fc:	0e 94 41 0e 	call	0x1c82	; 0x1c82 <HAL_LCD_displaystringRowColumn>
    1500:	80 e5       	ldi	r24, 0x50	; 80
    1502:	93 ec       	ldi	r25, 0xC3	; 195
    1504:	20 e9       	ldi	r18, 0x90	; 144
    1506:	31 e0       	ldi	r19, 0x01	; 1
    1508:	f9 01       	movw	r30, r18
    150a:	31 97       	sbiw	r30, 0x01	; 1
    150c:	f1 f7       	brne	.-4      	; 0x150a <Enter_Password+0x38>
    150e:	01 97       	sbiw	r24, 0x01	; 1
    1510:	d9 f7       	brne	.-10     	; 0x1508 <Enter_Password+0x36>
    1512:	c1 e0       	ldi	r28, 0x01	; 1
    1514:	d0 e0       	ldi	r29, 0x00	; 0
    1516:	63 e3       	ldi	r22, 0x33	; 51
    1518:	70 e0       	ldi	r23, 0x00	; 0
    151a:	80 e0       	ldi	r24, 0x00	; 0
    151c:	90 e0       	ldi	r25, 0x00	; 0
    151e:	0e 94 e6 0c 	call	0x19cc	; 0x19cc <HAL_LCD_integerToString>
    1522:	0e 94 b9 01 	call	0x372	; 0x372 <MCAL_UART_receive_sysch>
    1526:	80 93 1c 01 	sts	0x011C, r24
    152a:	fe 01       	movw	r30, r28
    152c:	e9 5e       	subi	r30, 0xE9	; 233
    152e:	fe 4f       	sbci	r31, 0xFE	; 254
    1530:	80 83       	st	Z, r24
    1532:	82 e0       	ldi	r24, 0x02	; 2
    1534:	6c 2f       	mov	r22, r28
    1536:	0e 94 1a 0e 	call	0x1c34	; 0x1c34 <HAL_LCD_goToRowColumn>
    153a:	8a e2       	ldi	r24, 0x2A	; 42
    153c:	0e 94 17 0c 	call	0x182e	; 0x182e <HAL_LCD_sendCharacter>
    1540:	21 96       	adiw	r28, 0x01	; 1
    1542:	c5 30       	cpi	r28, 0x05	; 5
    1544:	d1 05       	cpc	r29, r1
    1546:	39 f7       	brne	.-50     	; 0x1516 <Enter_Password+0x44>
    1548:	84 ef       	ldi	r24, 0xF4	; 244
    154a:	91 e0       	ldi	r25, 0x01	; 1
    154c:	20 e9       	ldi	r18, 0x90	; 144
    154e:	31 e0       	ldi	r19, 0x01	; 1
    1550:	f9 01       	movw	r30, r18
    1552:	31 97       	sbiw	r30, 0x01	; 1
    1554:	f1 f7       	brne	.-4      	; 0x1552 <Enter_Password+0x80>
    1556:	01 97       	sbiw	r24, 0x01	; 1
    1558:	d9 f7       	brne	.-10     	; 0x1550 <Enter_Password+0x7e>
    155a:	0e 94 4e 0e 	call	0x1c9c	; 0x1c9c <HAL_LCD_clearScreen>
    155e:	82 e9       	ldi	r24, 0x92	; 146
    1560:	90 e0       	ldi	r25, 0x00	; 0
    1562:	61 e0       	ldi	r22, 0x01	; 1
    1564:	41 e0       	ldi	r20, 0x01	; 1
    1566:	0e 94 41 0e 	call	0x1c82	; 0x1c82 <HAL_LCD_displaystringRowColumn>
    156a:	80 e5       	ldi	r24, 0x50	; 80
    156c:	93 ec       	ldi	r25, 0xC3	; 195
    156e:	20 e9       	ldi	r18, 0x90	; 144
    1570:	31 e0       	ldi	r19, 0x01	; 1
    1572:	f9 01       	movw	r30, r18
    1574:	31 97       	sbiw	r30, 0x01	; 1
    1576:	f1 f7       	brne	.-4      	; 0x1574 <Enter_Password+0xa2>
    1578:	01 97       	sbiw	r24, 0x01	; 1
    157a:	d9 f7       	brne	.-10     	; 0x1572 <Enter_Password+0xa0>
    157c:	cf e1       	ldi	r28, 0x1F	; 31
    157e:	d1 e0       	ldi	r29, 0x01	; 1
    1580:	00 e9       	ldi	r16, 0x90	; 144
    1582:	11 e0       	ldi	r17, 0x01	; 1
    1584:	0e 94 b9 01 	call	0x372	; 0x372 <MCAL_UART_receive_sysch>
    1588:	80 93 1c 01 	sts	0x011C, r24
    158c:	28 ee       	ldi	r18, 0xE8	; 232
    158e:	33 e0       	ldi	r19, 0x03	; 3
    1590:	f8 01       	movw	r30, r16
    1592:	31 97       	sbiw	r30, 0x01	; 1
    1594:	f1 f7       	brne	.-4      	; 0x1592 <Enter_Password+0xc0>
    1596:	21 50       	subi	r18, 0x01	; 1
    1598:	30 40       	sbci	r19, 0x00	; 0
    159a:	d1 f7       	brne	.-12     	; 0x1590 <Enter_Password+0xbe>
    159c:	88 83       	st	Y, r24
    159e:	82 e0       	ldi	r24, 0x02	; 2
    15a0:	65 e0       	ldi	r22, 0x05	; 5
    15a2:	0e 94 1a 0e 	call	0x1c34	; 0x1c34 <HAL_LCD_goToRowColumn>
    15a6:	8a e2       	ldi	r24, 0x2A	; 42
    15a8:	0e 94 17 0c 	call	0x182e	; 0x182e <HAL_LCD_sendCharacter>
    15ac:	84 ef       	ldi	r24, 0xF4	; 244
    15ae:	91 e0       	ldi	r25, 0x01	; 1
    15b0:	f8 01       	movw	r30, r16
    15b2:	31 97       	sbiw	r30, 0x01	; 1
    15b4:	f1 f7       	brne	.-4      	; 0x15b2 <Enter_Password+0xe0>
    15b6:	01 97       	sbiw	r24, 0x01	; 1
    15b8:	d9 f7       	brne	.-10     	; 0x15b0 <Enter_Password+0xde>
    15ba:	21 96       	adiw	r28, 0x01	; 1
    15bc:	81 e0       	ldi	r24, 0x01	; 1
    15be:	c3 32       	cpi	r28, 0x23	; 35
    15c0:	d8 07       	cpc	r29, r24
    15c2:	01 f7       	brne	.-64     	; 0x1584 <Enter_Password+0xb2>
    15c4:	88 e8       	ldi	r24, 0x88	; 136
    15c6:	93 e1       	ldi	r25, 0x13	; 19
    15c8:	20 e9       	ldi	r18, 0x90	; 144
    15ca:	31 e0       	ldi	r19, 0x01	; 1
    15cc:	f9 01       	movw	r30, r18
    15ce:	31 97       	sbiw	r30, 0x01	; 1
    15d0:	f1 f7       	brne	.-4      	; 0x15ce <Enter_Password+0xfc>
    15d2:	01 97       	sbiw	r24, 0x01	; 1
    15d4:	d9 f7       	brne	.-10     	; 0x15cc <Enter_Password+0xfa>
    15d6:	40 91 22 01 	lds	r20, 0x0122
    15da:	20 e0       	ldi	r18, 0x00	; 0
    15dc:	30 e0       	ldi	r19, 0x00	; 0
    15de:	f9 01       	movw	r30, r18
    15e0:	e8 5e       	subi	r30, 0xE8	; 232
    15e2:	fe 4f       	sbci	r31, 0xFE	; 254
    15e4:	d9 01       	movw	r26, r18
    15e6:	a1 5e       	subi	r26, 0xE1	; 225
    15e8:	be 4f       	sbci	r27, 0xFE	; 254
    15ea:	90 81       	ld	r25, Z
    15ec:	8c 91       	ld	r24, X
    15ee:	98 13       	cpse	r25, r24
    15f0:	41 e0       	ldi	r20, 0x01	; 1
    15f2:	2f 5f       	subi	r18, 0xFF	; 255
    15f4:	3f 4f       	sbci	r19, 0xFF	; 255
    15f6:	24 30       	cpi	r18, 0x04	; 4
    15f8:	31 05       	cpc	r19, r1
    15fa:	89 f7       	brne	.-30     	; 0x15de <Enter_Password+0x10c>
    15fc:	40 93 22 01 	sts	0x0122, r20
    1600:	44 23       	and	r20, r20
    1602:	d9 f5       	brne	.+118    	; 0x167a <Enter_Password+0x1a8>
    1604:	60 91 18 01 	lds	r22, 0x0118
    1608:	60 93 21 01 	sts	0x0121, r22
    160c:	80 91 19 01 	lds	r24, 0x0119
    1610:	80 93 1b 01 	sts	0x011B, r24
    1614:	80 91 1a 01 	lds	r24, 0x011A
    1618:	80 93 20 01 	sts	0x0120, r24
    161c:	80 91 1b 01 	lds	r24, 0x011B
    1620:	80 93 19 01 	sts	0x0119, r24
    1624:	81 e1       	ldi	r24, 0x11	; 17
    1626:	93 e0       	ldi	r25, 0x03	; 3
    1628:	70 e0       	ldi	r23, 0x00	; 0
    162a:	0e 94 46 06 	call	0xc8c	; 0xc8c <EEPROM_writeByte>
    162e:	60 91 1b 01 	lds	r22, 0x011B
    1632:	81 e2       	ldi	r24, 0x21	; 33
    1634:	93 e0       	ldi	r25, 0x03	; 3
    1636:	70 e0       	ldi	r23, 0x00	; 0
    1638:	0e 94 46 06 	call	0xc8c	; 0xc8c <EEPROM_writeByte>
    163c:	60 91 20 01 	lds	r22, 0x0120
    1640:	81 e3       	ldi	r24, 0x31	; 49
    1642:	93 e0       	ldi	r25, 0x03	; 3
    1644:	70 e0       	ldi	r23, 0x00	; 0
    1646:	0e 94 46 06 	call	0xc8c	; 0xc8c <EEPROM_writeByte>
    164a:	60 91 19 01 	lds	r22, 0x0119
    164e:	81 e4       	ldi	r24, 0x41	; 65
    1650:	93 e0       	ldi	r25, 0x03	; 3
    1652:	70 e0       	ldi	r23, 0x00	; 0
    1654:	0e 94 46 06 	call	0xc8c	; 0xc8c <EEPROM_writeByte>
    1658:	0e 94 4e 0e 	call	0x1c9c	; 0x1c9c <HAL_LCD_clearScreen>
    165c:	85 ea       	ldi	r24, 0xA5	; 165
    165e:	90 e0       	ldi	r25, 0x00	; 0
    1660:	61 e0       	ldi	r22, 0x01	; 1
    1662:	41 e0       	ldi	r20, 0x01	; 1
    1664:	0e 94 41 0e 	call	0x1c82	; 0x1c82 <HAL_LCD_displaystringRowColumn>
    1668:	88 e8       	ldi	r24, 0x88	; 136
    166a:	93 e1       	ldi	r25, 0x13	; 19
    166c:	20 e9       	ldi	r18, 0x90	; 144
    166e:	31 e0       	ldi	r19, 0x01	; 1
    1670:	f9 01       	movw	r30, r18
    1672:	31 97       	sbiw	r30, 0x01	; 1
    1674:	f1 f7       	brne	.-4      	; 0x1672 <Enter_Password+0x1a0>
    1676:	01 97       	sbiw	r24, 0x01	; 1
    1678:	d9 f7       	brne	.-10     	; 0x1670 <Enter_Password+0x19e>
    167a:	80 91 22 01 	lds	r24, 0x0122
    167e:	df 91       	pop	r29
    1680:	cf 91       	pop	r28
    1682:	1f 91       	pop	r17
    1684:	0f 91       	pop	r16
    1686:	08 95       	ret

00001688 <HAL_PIR_Read>:
    1688:	df 93       	push	r29
    168a:	cf 93       	push	r28
    168c:	00 d0       	rcall	.+0      	; 0x168e <HAL_PIR_Read+0x6>
    168e:	0f 92       	push	r0
    1690:	cd b7       	in	r28, 0x3d	; 61
    1692:	de b7       	in	r29, 0x3e	; 62
    1694:	ac 01       	movw	r20, r24
    1696:	83 e0       	ldi	r24, 0x03	; 3
    1698:	89 83       	std	Y+1, r24	; 0x01
    169a:	84 e0       	ldi	r24, 0x04	; 4
    169c:	8a 83       	std	Y+2, r24	; 0x02
    169e:	ce 01       	movw	r24, r28
    16a0:	01 96       	adiw	r24, 0x01	; 1
    16a2:	64 e0       	ldi	r22, 0x04	; 4
    16a4:	0e 94 01 08 	call	0x1002	; 0x1002 <MCAL_Dio_ReadSinglePin>
    16a8:	80 e0       	ldi	r24, 0x00	; 0
    16aa:	0f 90       	pop	r0
    16ac:	0f 90       	pop	r0
    16ae:	0f 90       	pop	r0
    16b0:	cf 91       	pop	r28
    16b2:	df 91       	pop	r29
    16b4:	08 95       	ret

000016b6 <HAL_PIR_Init>:
    16b6:	0f 93       	push	r16
    16b8:	1f 93       	push	r17
    16ba:	df 93       	push	r29
    16bc:	cf 93       	push	r28
    16be:	00 d0       	rcall	.+0      	; 0x16c0 <HAL_PIR_Init+0xa>
    16c0:	0f 92       	push	r0
    16c2:	cd b7       	in	r28, 0x3d	; 61
    16c4:	de b7       	in	r29, 0x3e	; 62
    16c6:	83 e0       	ldi	r24, 0x03	; 3
    16c8:	89 83       	std	Y+1, r24	; 0x01
    16ca:	84 e0       	ldi	r24, 0x04	; 4
    16cc:	8a 83       	std	Y+2, r24	; 0x02
    16ce:	1b 82       	std	Y+3, r1	; 0x03
    16d0:	8e 01       	movw	r16, r28
    16d2:	0f 5f       	subi	r16, 0xFF	; 255
    16d4:	1f 4f       	sbci	r17, 0xFF	; 255
    16d6:	c8 01       	movw	r24, r16
    16d8:	0e 94 77 06 	call	0xcee	; 0xcee <MCAL_Dio_Init>
    16dc:	c8 01       	movw	r24, r16
    16de:	0e 94 c0 06 	call	0xd80	; 0xd80 <MCAL_Dio_SetPinDirection>
    16e2:	80 e0       	ldi	r24, 0x00	; 0
    16e4:	0f 90       	pop	r0
    16e6:	0f 90       	pop	r0
    16e8:	0f 90       	pop	r0
    16ea:	cf 91       	pop	r28
    16ec:	df 91       	pop	r29
    16ee:	1f 91       	pop	r17
    16f0:	0f 91       	pop	r16
    16f2:	08 95       	ret

000016f4 <HAL_LM35_readTemp>:
    16f4:	24 ef       	ldi	r18, 0xF4	; 244
    16f6:	31 e0       	ldi	r19, 0x01	; 1
    16f8:	40 e0       	ldi	r20, 0x00	; 0
    16fa:	50 e0       	ldi	r21, 0x00	; 0
    16fc:	0e 94 a8 10 	call	0x2150	; 0x2150 <__mulsi3>
    1700:	2f ef       	ldi	r18, 0xFF	; 255
    1702:	33 e0       	ldi	r19, 0x03	; 3
    1704:	40 e0       	ldi	r20, 0x00	; 0
    1706:	50 e0       	ldi	r21, 0x00	; 0
    1708:	0e 94 d3 10 	call	0x21a6	; 0x21a6 <__udivmodsi4>
    170c:	82 2f       	mov	r24, r18
    170e:	08 95       	ret

00001710 <HAL_LED_TOGGLE>:
    1710:	df 93       	push	r29
    1712:	cf 93       	push	r28
    1714:	00 d0       	rcall	.+0      	; 0x1716 <HAL_LED_TOGGLE+0x6>
    1716:	0f 92       	push	r0
    1718:	cd b7       	in	r28, 0x3d	; 61
    171a:	de b7       	in	r29, 0x3e	; 62
    171c:	89 83       	std	Y+1, r24	; 0x01
    171e:	6a 83       	std	Y+2, r22	; 0x02
    1720:	1b 82       	std	Y+3, r1	; 0x03
    1722:	ce 01       	movw	r24, r28
    1724:	01 96       	adiw	r24, 0x01	; 1
    1726:	6f ef       	ldi	r22, 0xFF	; 255
    1728:	0e 94 4d 07 	call	0xe9a	; 0xe9a <MCAL_Dio_WritePin>
    172c:	88 e8       	ldi	r24, 0x88	; 136
    172e:	93 e1       	ldi	r25, 0x13	; 19
    1730:	20 e9       	ldi	r18, 0x90	; 144
    1732:	31 e0       	ldi	r19, 0x01	; 1
    1734:	f9 01       	movw	r30, r18
    1736:	31 97       	sbiw	r30, 0x01	; 1
    1738:	f1 f7       	brne	.-4      	; 0x1736 <HAL_LED_TOGGLE+0x26>
    173a:	01 97       	sbiw	r24, 0x01	; 1
    173c:	d9 f7       	brne	.-10     	; 0x1734 <HAL_LED_TOGGLE+0x24>
    173e:	ce 01       	movw	r24, r28
    1740:	01 96       	adiw	r24, 0x01	; 1
    1742:	60 e0       	ldi	r22, 0x00	; 0
    1744:	0e 94 4d 07 	call	0xe9a	; 0xe9a <MCAL_Dio_WritePin>
    1748:	28 e8       	ldi	r18, 0x88	; 136
    174a:	33 e1       	ldi	r19, 0x13	; 19
    174c:	40 e9       	ldi	r20, 0x90	; 144
    174e:	51 e0       	ldi	r21, 0x01	; 1
    1750:	fa 01       	movw	r30, r20
    1752:	31 97       	sbiw	r30, 0x01	; 1
    1754:	f1 f7       	brne	.-4      	; 0x1752 <HAL_LED_TOGGLE+0x42>
    1756:	21 50       	subi	r18, 0x01	; 1
    1758:	30 40       	sbci	r19, 0x00	; 0
    175a:	d1 f7       	brne	.-12     	; 0x1750 <HAL_LED_TOGGLE+0x40>
    175c:	0f 90       	pop	r0
    175e:	0f 90       	pop	r0
    1760:	0f 90       	pop	r0
    1762:	cf 91       	pop	r28
    1764:	df 91       	pop	r29
    1766:	08 95       	ret

00001768 <HAL_LED_OFF>:
    1768:	df 93       	push	r29
    176a:	cf 93       	push	r28
    176c:	00 d0       	rcall	.+0      	; 0x176e <HAL_LED_OFF+0x6>
    176e:	0f 92       	push	r0
    1770:	cd b7       	in	r28, 0x3d	; 61
    1772:	de b7       	in	r29, 0x3e	; 62
    1774:	89 83       	std	Y+1, r24	; 0x01
    1776:	6a 83       	std	Y+2, r22	; 0x02
    1778:	1b 82       	std	Y+3, r1	; 0x03
    177a:	ce 01       	movw	r24, r28
    177c:	01 96       	adiw	r24, 0x01	; 1
    177e:	60 e0       	ldi	r22, 0x00	; 0
    1780:	0e 94 4d 07 	call	0xe9a	; 0xe9a <MCAL_Dio_WritePin>
    1784:	0f 90       	pop	r0
    1786:	0f 90       	pop	r0
    1788:	0f 90       	pop	r0
    178a:	cf 91       	pop	r28
    178c:	df 91       	pop	r29
    178e:	08 95       	ret

00001790 <HAL_LED_ON>:
    1790:	df 93       	push	r29
    1792:	cf 93       	push	r28
    1794:	00 d0       	rcall	.+0      	; 0x1796 <HAL_LED_ON+0x6>
    1796:	0f 92       	push	r0
    1798:	cd b7       	in	r28, 0x3d	; 61
    179a:	de b7       	in	r29, 0x3e	; 62
    179c:	89 83       	std	Y+1, r24	; 0x01
    179e:	6a 83       	std	Y+2, r22	; 0x02
    17a0:	1b 82       	std	Y+3, r1	; 0x03
    17a2:	ce 01       	movw	r24, r28
    17a4:	01 96       	adiw	r24, 0x01	; 1
    17a6:	6f ef       	ldi	r22, 0xFF	; 255
    17a8:	0e 94 4d 07 	call	0xe9a	; 0xe9a <MCAL_Dio_WritePin>
    17ac:	0f 90       	pop	r0
    17ae:	0f 90       	pop	r0
    17b0:	0f 90       	pop	r0
    17b2:	cf 91       	pop	r28
    17b4:	df 91       	pop	r29
    17b6:	08 95       	ret

000017b8 <HAL_LED_INIT>:
    17b8:	df 93       	push	r29
    17ba:	cf 93       	push	r28
    17bc:	00 d0       	rcall	.+0      	; 0x17be <HAL_LED_INIT+0x6>
    17be:	0f 92       	push	r0
    17c0:	cd b7       	in	r28, 0x3d	; 61
    17c2:	de b7       	in	r29, 0x3e	; 62
    17c4:	89 83       	std	Y+1, r24	; 0x01
    17c6:	6a 83       	std	Y+2, r22	; 0x02
    17c8:	8f ef       	ldi	r24, 0xFF	; 255
    17ca:	8b 83       	std	Y+3, r24	; 0x03
    17cc:	ce 01       	movw	r24, r28
    17ce:	01 96       	adiw	r24, 0x01	; 1
    17d0:	0e 94 77 06 	call	0xcee	; 0xcee <MCAL_Dio_Init>
    17d4:	0f 90       	pop	r0
    17d6:	0f 90       	pop	r0
    17d8:	0f 90       	pop	r0
    17da:	cf 91       	pop	r28
    17dc:	df 91       	pop	r29
    17de:	08 95       	ret

000017e0 <HAL_LDR_Read>:
    17e0:	0f 93       	push	r16
    17e2:	1f 93       	push	r17
    17e4:	8c 01       	movw	r16, r24
    17e6:	80 e0       	ldi	r24, 0x00	; 0
    17e8:	0e 94 95 08 	call	0x112a	; 0x112a <MCAL_ADC_READ>
    17ec:	20 e0       	ldi	r18, 0x00	; 0
    17ee:	34 e0       	ldi	r19, 0x04	; 4
    17f0:	28 1b       	sub	r18, r24
    17f2:	39 0b       	sbc	r19, r25
    17f4:	44 27       	eor	r20, r20
    17f6:	37 fd       	sbrc	r19, 7
    17f8:	40 95       	com	r20
    17fa:	54 2f       	mov	r21, r20
    17fc:	ca 01       	movw	r24, r20
    17fe:	b9 01       	movw	r22, r18
    1800:	24 e6       	ldi	r18, 0x64	; 100
    1802:	30 e0       	ldi	r19, 0x00	; 0
    1804:	40 e0       	ldi	r20, 0x00	; 0
    1806:	50 e0       	ldi	r21, 0x00	; 0
    1808:	0e 94 a8 10 	call	0x2150	; 0x2150 <__mulsi3>
    180c:	20 e0       	ldi	r18, 0x00	; 0
    180e:	34 e0       	ldi	r19, 0x04	; 4
    1810:	40 e0       	ldi	r20, 0x00	; 0
    1812:	50 e0       	ldi	r21, 0x00	; 0
    1814:	0e 94 f5 10 	call	0x21ea	; 0x21ea <__divmodsi4>
    1818:	f8 01       	movw	r30, r16
    181a:	20 83       	st	Z, r18
    181c:	80 e0       	ldi	r24, 0x00	; 0
    181e:	1f 91       	pop	r17
    1820:	0f 91       	pop	r16
    1822:	08 95       	ret

00001824 <HAL_LDR_Init>:
    1824:	80 eb       	ldi	r24, 0xB0	; 176
    1826:	90 e0       	ldi	r25, 0x00	; 0
    1828:	0e 94 c0 06 	call	0xd80	; 0xd80 <MCAL_Dio_SetPinDirection>
    182c:	08 95       	ret

0000182e <HAL_LCD_sendCharacter>:
    182e:	af 92       	push	r10
    1830:	bf 92       	push	r11
    1832:	cf 92       	push	r12
    1834:	df 92       	push	r13
    1836:	ef 92       	push	r14
    1838:	ff 92       	push	r15
    183a:	0f 93       	push	r16
    183c:	df 93       	push	r29
    183e:	cf 93       	push	r28
    1840:	cd b7       	in	r28, 0x3d	; 61
    1842:	de b7       	in	r29, 0x3e	; 62
    1844:	29 97       	sbiw	r28, 0x09	; 9
    1846:	0f b6       	in	r0, 0x3f	; 63
    1848:	f8 94       	cli
    184a:	de bf       	out	0x3e, r29	; 62
    184c:	0f be       	out	0x3f, r0	; 63
    184e:	cd bf       	out	0x3d, r28	; 61
    1850:	08 2f       	mov	r16, r24
    1852:	de 01       	movw	r26, r28
    1854:	11 96       	adiw	r26, 0x01	; 1
    1856:	e9 ec       	ldi	r30, 0xC9	; 201
    1858:	f0 e0       	ldi	r31, 0x00	; 0
    185a:	83 e0       	ldi	r24, 0x03	; 3
    185c:	01 90       	ld	r0, Z+
    185e:	0d 92       	st	X+, r0
    1860:	81 50       	subi	r24, 0x01	; 1
    1862:	e1 f7       	brne	.-8      	; 0x185c <HAL_LCD_sendCharacter+0x2e>
    1864:	ce 01       	movw	r24, r28
    1866:	01 96       	adiw	r24, 0x01	; 1
    1868:	6f ef       	ldi	r22, 0xFF	; 255
    186a:	0e 94 4d 07 	call	0xe9a	; 0xe9a <MCAL_Dio_WritePin>
    186e:	de 01       	movw	r26, r28
    1870:	14 96       	adiw	r26, 0x04	; 4
    1872:	e6 ec       	ldi	r30, 0xC6	; 198
    1874:	f0 e0       	ldi	r31, 0x00	; 0
    1876:	83 e0       	ldi	r24, 0x03	; 3
    1878:	01 90       	ld	r0, Z+
    187a:	0d 92       	st	X+, r0
    187c:	81 50       	subi	r24, 0x01	; 1
    187e:	e1 f7       	brne	.-8      	; 0x1878 <HAL_LCD_sendCharacter+0x4a>
    1880:	80 ea       	ldi	r24, 0xA0	; 160
    1882:	9f e0       	ldi	r25, 0x0F	; 15
    1884:	01 97       	sbiw	r24, 0x01	; 1
    1886:	f1 f7       	brne	.-4      	; 0x1884 <HAL_LCD_sendCharacter+0x56>
    1888:	de 01       	movw	r26, r28
    188a:	17 96       	adiw	r26, 0x07	; 7
    188c:	e3 ec       	ldi	r30, 0xC3	; 195
    188e:	f0 e0       	ldi	r31, 0x00	; 0
    1890:	83 e0       	ldi	r24, 0x03	; 3
    1892:	01 90       	ld	r0, Z+
    1894:	0d 92       	st	X+, r0
    1896:	81 50       	subi	r24, 0x01	; 1
    1898:	e1 f7       	brne	.-8      	; 0x1892 <HAL_LCD_sendCharacter+0x64>
    189a:	27 e0       	ldi	r18, 0x07	; 7
    189c:	a2 2e       	mov	r10, r18
    189e:	b1 2c       	mov	r11, r1
    18a0:	ac 0e       	add	r10, r28
    18a2:	bd 1e       	adc	r11, r29
    18a4:	40 2f       	mov	r20, r16
    18a6:	45 95       	asr	r20
    18a8:	45 95       	asr	r20
    18aa:	45 95       	asr	r20
    18ac:	45 95       	asr	r20
    18ae:	41 70       	andi	r20, 0x01	; 1
    18b0:	c5 01       	movw	r24, r10
    18b2:	61 e0       	ldi	r22, 0x01	; 1
    18b4:	0e 94 78 07 	call	0xef0	; 0xef0 <MCAL_Dio_WriteSinglePin>
    18b8:	40 2f       	mov	r20, r16
    18ba:	45 95       	asr	r20
    18bc:	45 95       	asr	r20
    18be:	45 95       	asr	r20
    18c0:	45 95       	asr	r20
    18c2:	45 95       	asr	r20
    18c4:	41 70       	andi	r20, 0x01	; 1
    18c6:	c5 01       	movw	r24, r10
    18c8:	62 e0       	ldi	r22, 0x02	; 2
    18ca:	0e 94 78 07 	call	0xef0	; 0xef0 <MCAL_Dio_WriteSinglePin>
    18ce:	40 2f       	mov	r20, r16
    18d0:	46 fb       	bst	r20, 6
    18d2:	44 0f       	add	r20, r20
    18d4:	44 0b       	sbc	r20, r20
    18d6:	40 f9       	bld	r20, 0
    18d8:	41 70       	andi	r20, 0x01	; 1
    18da:	c5 01       	movw	r24, r10
    18dc:	64 e0       	ldi	r22, 0x04	; 4
    18de:	0e 94 78 07 	call	0xef0	; 0xef0 <MCAL_Dio_WriteSinglePin>
    18e2:	40 2f       	mov	r20, r16
    18e4:	44 1f       	adc	r20, r20
    18e6:	44 27       	eor	r20, r20
    18e8:	44 1f       	adc	r20, r20
    18ea:	c5 01       	movw	r24, r10
    18ec:	60 e1       	ldi	r22, 0x10	; 16
    18ee:	0e 94 78 07 	call	0xef0	; 0xef0 <MCAL_Dio_WriteSinglePin>
    18f2:	90 ea       	ldi	r25, 0xA0	; 160
    18f4:	e9 2e       	mov	r14, r25
    18f6:	9f e0       	ldi	r25, 0x0F	; 15
    18f8:	f9 2e       	mov	r15, r25
    18fa:	c7 01       	movw	r24, r14
    18fc:	01 97       	sbiw	r24, 0x01	; 1
    18fe:	f1 f7       	brne	.-4      	; 0x18fc <HAL_LCD_sendCharacter+0xce>
    1900:	84 e0       	ldi	r24, 0x04	; 4
    1902:	c8 2e       	mov	r12, r24
    1904:	d1 2c       	mov	r13, r1
    1906:	cc 0e       	add	r12, r28
    1908:	dd 1e       	adc	r13, r29
    190a:	c6 01       	movw	r24, r12
    190c:	6f ef       	ldi	r22, 0xFF	; 255
    190e:	0e 94 4d 07 	call	0xe9a	; 0xe9a <MCAL_Dio_WritePin>
    1912:	c7 01       	movw	r24, r14
    1914:	01 97       	sbiw	r24, 0x01	; 1
    1916:	f1 f7       	brne	.-4      	; 0x1914 <HAL_LCD_sendCharacter+0xe6>
    1918:	c6 01       	movw	r24, r12
    191a:	60 e0       	ldi	r22, 0x00	; 0
    191c:	0e 94 4d 07 	call	0xe9a	; 0xe9a <MCAL_Dio_WritePin>
    1920:	c7 01       	movw	r24, r14
    1922:	01 97       	sbiw	r24, 0x01	; 1
    1924:	f1 f7       	brne	.-4      	; 0x1922 <HAL_LCD_sendCharacter+0xf4>
    1926:	40 2f       	mov	r20, r16
    1928:	41 70       	andi	r20, 0x01	; 1
    192a:	c5 01       	movw	r24, r10
    192c:	61 e0       	ldi	r22, 0x01	; 1
    192e:	0e 94 78 07 	call	0xef0	; 0xef0 <MCAL_Dio_WriteSinglePin>
    1932:	40 2f       	mov	r20, r16
    1934:	45 95       	asr	r20
    1936:	41 70       	andi	r20, 0x01	; 1
    1938:	c5 01       	movw	r24, r10
    193a:	62 e0       	ldi	r22, 0x02	; 2
    193c:	0e 94 78 07 	call	0xef0	; 0xef0 <MCAL_Dio_WriteSinglePin>
    1940:	05 95       	asr	r16
    1942:	05 95       	asr	r16
    1944:	40 2f       	mov	r20, r16
    1946:	41 70       	andi	r20, 0x01	; 1
    1948:	c5 01       	movw	r24, r10
    194a:	64 e0       	ldi	r22, 0x04	; 4
    194c:	0e 94 78 07 	call	0xef0	; 0xef0 <MCAL_Dio_WriteSinglePin>
    1950:	05 95       	asr	r16
    1952:	01 70       	andi	r16, 0x01	; 1
    1954:	c5 01       	movw	r24, r10
    1956:	60 e1       	ldi	r22, 0x10	; 16
    1958:	40 2f       	mov	r20, r16
    195a:	0e 94 78 07 	call	0xef0	; 0xef0 <MCAL_Dio_WriteSinglePin>
    195e:	c7 01       	movw	r24, r14
    1960:	01 97       	sbiw	r24, 0x01	; 1
    1962:	f1 f7       	brne	.-4      	; 0x1960 <HAL_LCD_sendCharacter+0x132>
    1964:	c6 01       	movw	r24, r12
    1966:	6f ef       	ldi	r22, 0xFF	; 255
    1968:	0e 94 4d 07 	call	0xe9a	; 0xe9a <MCAL_Dio_WritePin>
    196c:	c7 01       	movw	r24, r14
    196e:	01 97       	sbiw	r24, 0x01	; 1
    1970:	f1 f7       	brne	.-4      	; 0x196e <HAL_LCD_sendCharacter+0x140>
    1972:	c6 01       	movw	r24, r12
    1974:	60 e0       	ldi	r22, 0x00	; 0
    1976:	0e 94 4d 07 	call	0xe9a	; 0xe9a <MCAL_Dio_WritePin>
    197a:	f7 01       	movw	r30, r14
    197c:	31 97       	sbiw	r30, 0x01	; 1
    197e:	f1 f7       	brne	.-4      	; 0x197c <HAL_LCD_sendCharacter+0x14e>
    1980:	29 96       	adiw	r28, 0x09	; 9
    1982:	0f b6       	in	r0, 0x3f	; 63
    1984:	f8 94       	cli
    1986:	de bf       	out	0x3e, r29	; 62
    1988:	0f be       	out	0x3f, r0	; 63
    198a:	cd bf       	out	0x3d, r28	; 61
    198c:	cf 91       	pop	r28
    198e:	df 91       	pop	r29
    1990:	0f 91       	pop	r16
    1992:	ff 90       	pop	r15
    1994:	ef 90       	pop	r14
    1996:	df 90       	pop	r13
    1998:	cf 90       	pop	r12
    199a:	bf 90       	pop	r11
    199c:	af 90       	pop	r10
    199e:	08 95       	ret

000019a0 <HAL_LCD_sendString>:
    19a0:	1f 93       	push	r17
    19a2:	cf 93       	push	r28
    19a4:	df 93       	push	r29
    19a6:	ec 01       	movw	r28, r24
    19a8:	91 e0       	ldi	r25, 0x01	; 1
    19aa:	10 e0       	ldi	r17, 0x00	; 0
    19ac:	04 c0       	rjmp	.+8      	; 0x19b6 <HAL_LCD_sendString+0x16>
    19ae:	0e 94 17 0c 	call	0x182e	; 0x182e <HAL_LCD_sendCharacter>
    19b2:	98 2f       	mov	r25, r24
    19b4:	1f 5f       	subi	r17, 0xFF	; 255
    19b6:	fe 01       	movw	r30, r28
    19b8:	e1 0f       	add	r30, r17
    19ba:	f1 1d       	adc	r31, r1
    19bc:	80 81       	ld	r24, Z
    19be:	88 23       	and	r24, r24
    19c0:	b1 f7       	brne	.-20     	; 0x19ae <HAL_LCD_sendString+0xe>
    19c2:	89 2f       	mov	r24, r25
    19c4:	df 91       	pop	r29
    19c6:	cf 91       	pop	r28
    19c8:	1f 91       	pop	r17
    19ca:	08 95       	ret

000019cc <HAL_LCD_integerToString>:
    19cc:	8f 92       	push	r8
    19ce:	9f 92       	push	r9
    19d0:	af 92       	push	r10
    19d2:	bf 92       	push	r11
    19d4:	cf 92       	push	r12
    19d6:	df 92       	push	r13
    19d8:	ef 92       	push	r14
    19da:	ff 92       	push	r15
    19dc:	0f 93       	push	r16
    19de:	1f 93       	push	r17
    19e0:	df 93       	push	r29
    19e2:	cf 93       	push	r28
    19e4:	cd b7       	in	r28, 0x3d	; 61
    19e6:	de b7       	in	r29, 0x3e	; 62
    19e8:	61 97       	sbiw	r28, 0x11	; 17
    19ea:	0f b6       	in	r0, 0x3f	; 63
    19ec:	f8 94       	cli
    19ee:	de bf       	out	0x3e, r29	; 62
    19f0:	0f be       	out	0x3f, r0	; 63
    19f2:	cd bf       	out	0x3d, r28	; 61
    19f4:	6b 01       	movw	r12, r22
    19f6:	7c 01       	movw	r14, r24
    19f8:	61 15       	cp	r22, r1
    19fa:	71 05       	cpc	r23, r1
    19fc:	81 05       	cpc	r24, r1
    19fe:	91 05       	cpc	r25, r1
    1a00:	11 f4       	brne	.+4      	; 0x1a06 <HAL_LCD_integerToString+0x3a>
    1a02:	11 e0       	ldi	r17, 0x01	; 1
    1a04:	15 c0       	rjmp	.+42     	; 0x1a30 <HAL_LCD_integerToString+0x64>
    1a06:	10 e0       	ldi	r17, 0x00	; 0
    1a08:	1f 5f       	subi	r17, 0xFF	; 255
    1a0a:	2a e0       	ldi	r18, 0x0A	; 10
    1a0c:	30 e0       	ldi	r19, 0x00	; 0
    1a0e:	40 e0       	ldi	r20, 0x00	; 0
    1a10:	50 e0       	ldi	r21, 0x00	; 0
    1a12:	0e 94 d3 10 	call	0x21a6	; 0x21a6 <__udivmodsi4>
    1a16:	c9 01       	movw	r24, r18
    1a18:	da 01       	movw	r26, r20
    1a1a:	bc 01       	movw	r22, r24
    1a1c:	cd 01       	movw	r24, r26
    1a1e:	61 15       	cp	r22, r1
    1a20:	71 05       	cpc	r23, r1
    1a22:	81 05       	cpc	r24, r1
    1a24:	91 05       	cpc	r25, r1
    1a26:	81 f7       	brne	.-32     	; 0x1a08 <HAL_LCD_integerToString+0x3c>
    1a28:	1f 30       	cpi	r17, 0x0F	; 15
    1a2a:	10 f0       	brcs	.+4      	; 0x1a30 <HAL_LCD_integerToString+0x64>
    1a2c:	81 e0       	ldi	r24, 0x01	; 1
    1a2e:	32 c0       	rjmp	.+100    	; 0x1a94 <HAL_LCD_integerToString+0xc8>
    1a30:	00 e0       	ldi	r16, 0x00	; 0
    1a32:	a1 2e       	mov	r10, r17
    1a34:	bb 24       	eor	r11, r11
    1a36:	4e 01       	movw	r8, r28
    1a38:	08 94       	sec
    1a3a:	81 1c       	adc	r8, r1
    1a3c:	91 1c       	adc	r9, r1
    1a3e:	21 c0       	rjmp	.+66     	; 0x1a82 <HAL_LCD_integerToString+0xb6>
    1a40:	c7 01       	movw	r24, r14
    1a42:	b6 01       	movw	r22, r12
    1a44:	2a e0       	ldi	r18, 0x0A	; 10
    1a46:	30 e0       	ldi	r19, 0x00	; 0
    1a48:	40 e0       	ldi	r20, 0x00	; 0
    1a4a:	50 e0       	ldi	r21, 0x00	; 0
    1a4c:	0e 94 d3 10 	call	0x21a6	; 0x21a6 <__udivmodsi4>
    1a50:	69 8b       	std	Y+17, r22	; 0x11
    1a52:	c7 01       	movw	r24, r14
    1a54:	b6 01       	movw	r22, r12
    1a56:	2a e0       	ldi	r18, 0x0A	; 10
    1a58:	30 e0       	ldi	r19, 0x00	; 0
    1a5a:	40 e0       	ldi	r20, 0x00	; 0
    1a5c:	50 e0       	ldi	r21, 0x00	; 0
    1a5e:	0e 94 d3 10 	call	0x21a6	; 0x21a6 <__udivmodsi4>
    1a62:	c9 01       	movw	r24, r18
    1a64:	da 01       	movw	r26, r20
    1a66:	6c 01       	movw	r12, r24
    1a68:	7d 01       	movw	r14, r26
    1a6a:	e0 2f       	mov	r30, r16
    1a6c:	f0 e0       	ldi	r31, 0x00	; 0
    1a6e:	e0 95       	com	r30
    1a70:	f0 95       	com	r31
    1a72:	e8 0d       	add	r30, r8
    1a74:	f9 1d       	adc	r31, r9
    1a76:	ea 0d       	add	r30, r10
    1a78:	fb 1d       	adc	r31, r11
    1a7a:	89 89       	ldd	r24, Y+17	; 0x11
    1a7c:	80 5d       	subi	r24, 0xD0	; 208
    1a7e:	80 83       	st	Z, r24
    1a80:	0f 5f       	subi	r16, 0xFF	; 255
    1a82:	01 17       	cp	r16, r17
    1a84:	e8 f2       	brcs	.-70     	; 0x1a40 <HAL_LCD_integerToString+0x74>
    1a86:	a8 0c       	add	r10, r8
    1a88:	b9 1c       	adc	r11, r9
    1a8a:	f5 01       	movw	r30, r10
    1a8c:	10 82       	st	Z, r1
    1a8e:	c4 01       	movw	r24, r8
    1a90:	0e 94 d0 0c 	call	0x19a0	; 0x19a0 <HAL_LCD_sendString>
    1a94:	61 96       	adiw	r28, 0x11	; 17
    1a96:	0f b6       	in	r0, 0x3f	; 63
    1a98:	f8 94       	cli
    1a9a:	de bf       	out	0x3e, r29	; 62
    1a9c:	0f be       	out	0x3f, r0	; 63
    1a9e:	cd bf       	out	0x3d, r28	; 61
    1aa0:	cf 91       	pop	r28
    1aa2:	df 91       	pop	r29
    1aa4:	1f 91       	pop	r17
    1aa6:	0f 91       	pop	r16
    1aa8:	ff 90       	pop	r15
    1aaa:	ef 90       	pop	r14
    1aac:	df 90       	pop	r13
    1aae:	cf 90       	pop	r12
    1ab0:	bf 90       	pop	r11
    1ab2:	af 90       	pop	r10
    1ab4:	9f 90       	pop	r9
    1ab6:	8f 90       	pop	r8
    1ab8:	08 95       	ret

00001aba <HAL_LCD_sendCommand>:
    1aba:	af 92       	push	r10
    1abc:	bf 92       	push	r11
    1abe:	cf 92       	push	r12
    1ac0:	df 92       	push	r13
    1ac2:	ef 92       	push	r14
    1ac4:	ff 92       	push	r15
    1ac6:	0f 93       	push	r16
    1ac8:	df 93       	push	r29
    1aca:	cf 93       	push	r28
    1acc:	cd b7       	in	r28, 0x3d	; 61
    1ace:	de b7       	in	r29, 0x3e	; 62
    1ad0:	29 97       	sbiw	r28, 0x09	; 9
    1ad2:	0f b6       	in	r0, 0x3f	; 63
    1ad4:	f8 94       	cli
    1ad6:	de bf       	out	0x3e, r29	; 62
    1ad8:	0f be       	out	0x3f, r0	; 63
    1ada:	cd bf       	out	0x3d, r28	; 61
    1adc:	08 2f       	mov	r16, r24
    1ade:	de 01       	movw	r26, r28
    1ae0:	11 96       	adiw	r26, 0x01	; 1
    1ae2:	e2 ed       	ldi	r30, 0xD2	; 210
    1ae4:	f0 e0       	ldi	r31, 0x00	; 0
    1ae6:	83 e0       	ldi	r24, 0x03	; 3
    1ae8:	01 90       	ld	r0, Z+
    1aea:	0d 92       	st	X+, r0
    1aec:	81 50       	subi	r24, 0x01	; 1
    1aee:	e1 f7       	brne	.-8      	; 0x1ae8 <HAL_LCD_sendCommand+0x2e>
    1af0:	ce 01       	movw	r24, r28
    1af2:	01 96       	adiw	r24, 0x01	; 1
    1af4:	60 e0       	ldi	r22, 0x00	; 0
    1af6:	0e 94 4d 07 	call	0xe9a	; 0xe9a <MCAL_Dio_WritePin>
    1afa:	80 ea       	ldi	r24, 0xA0	; 160
    1afc:	9f e0       	ldi	r25, 0x0F	; 15
    1afe:	01 97       	sbiw	r24, 0x01	; 1
    1b00:	f1 f7       	brne	.-4      	; 0x1afe <HAL_LCD_sendCommand+0x44>
    1b02:	de 01       	movw	r26, r28
    1b04:	14 96       	adiw	r26, 0x04	; 4
    1b06:	ef ec       	ldi	r30, 0xCF	; 207
    1b08:	f0 e0       	ldi	r31, 0x00	; 0
    1b0a:	83 e0       	ldi	r24, 0x03	; 3
    1b0c:	01 90       	ld	r0, Z+
    1b0e:	0d 92       	st	X+, r0
    1b10:	81 50       	subi	r24, 0x01	; 1
    1b12:	e1 f7       	brne	.-8      	; 0x1b0c <HAL_LCD_sendCommand+0x52>
    1b14:	80 ea       	ldi	r24, 0xA0	; 160
    1b16:	9f e0       	ldi	r25, 0x0F	; 15
    1b18:	01 97       	sbiw	r24, 0x01	; 1
    1b1a:	f1 f7       	brne	.-4      	; 0x1b18 <HAL_LCD_sendCommand+0x5e>
    1b1c:	de 01       	movw	r26, r28
    1b1e:	17 96       	adiw	r26, 0x07	; 7
    1b20:	ec ec       	ldi	r30, 0xCC	; 204
    1b22:	f0 e0       	ldi	r31, 0x00	; 0
    1b24:	83 e0       	ldi	r24, 0x03	; 3
    1b26:	01 90       	ld	r0, Z+
    1b28:	0d 92       	st	X+, r0
    1b2a:	81 50       	subi	r24, 0x01	; 1
    1b2c:	e1 f7       	brne	.-8      	; 0x1b26 <HAL_LCD_sendCommand+0x6c>
    1b2e:	57 e0       	ldi	r21, 0x07	; 7
    1b30:	a5 2e       	mov	r10, r21
    1b32:	b1 2c       	mov	r11, r1
    1b34:	ac 0e       	add	r10, r28
    1b36:	bd 1e       	adc	r11, r29
    1b38:	40 2f       	mov	r20, r16
    1b3a:	45 95       	asr	r20
    1b3c:	45 95       	asr	r20
    1b3e:	45 95       	asr	r20
    1b40:	45 95       	asr	r20
    1b42:	41 70       	andi	r20, 0x01	; 1
    1b44:	c5 01       	movw	r24, r10
    1b46:	61 e0       	ldi	r22, 0x01	; 1
    1b48:	0e 94 78 07 	call	0xef0	; 0xef0 <MCAL_Dio_WriteSinglePin>
    1b4c:	40 2f       	mov	r20, r16
    1b4e:	45 95       	asr	r20
    1b50:	45 95       	asr	r20
    1b52:	45 95       	asr	r20
    1b54:	45 95       	asr	r20
    1b56:	45 95       	asr	r20
    1b58:	41 70       	andi	r20, 0x01	; 1
    1b5a:	c5 01       	movw	r24, r10
    1b5c:	62 e0       	ldi	r22, 0x02	; 2
    1b5e:	0e 94 78 07 	call	0xef0	; 0xef0 <MCAL_Dio_WriteSinglePin>
    1b62:	40 2f       	mov	r20, r16
    1b64:	46 fb       	bst	r20, 6
    1b66:	44 0f       	add	r20, r20
    1b68:	44 0b       	sbc	r20, r20
    1b6a:	40 f9       	bld	r20, 0
    1b6c:	41 70       	andi	r20, 0x01	; 1
    1b6e:	c5 01       	movw	r24, r10
    1b70:	64 e0       	ldi	r22, 0x04	; 4
    1b72:	0e 94 78 07 	call	0xef0	; 0xef0 <MCAL_Dio_WriteSinglePin>
    1b76:	40 2f       	mov	r20, r16
    1b78:	44 1f       	adc	r20, r20
    1b7a:	44 27       	eor	r20, r20
    1b7c:	44 1f       	adc	r20, r20
    1b7e:	c5 01       	movw	r24, r10
    1b80:	60 e1       	ldi	r22, 0x10	; 16
    1b82:	0e 94 78 07 	call	0xef0	; 0xef0 <MCAL_Dio_WriteSinglePin>
    1b86:	40 ea       	ldi	r20, 0xA0	; 160
    1b88:	e4 2e       	mov	r14, r20
    1b8a:	4f e0       	ldi	r20, 0x0F	; 15
    1b8c:	f4 2e       	mov	r15, r20
    1b8e:	c7 01       	movw	r24, r14
    1b90:	01 97       	sbiw	r24, 0x01	; 1
    1b92:	f1 f7       	brne	.-4      	; 0x1b90 <HAL_LCD_sendCommand+0xd6>
    1b94:	34 e0       	ldi	r19, 0x04	; 4
    1b96:	c3 2e       	mov	r12, r19
    1b98:	d1 2c       	mov	r13, r1
    1b9a:	cc 0e       	add	r12, r28
    1b9c:	dd 1e       	adc	r13, r29
    1b9e:	c6 01       	movw	r24, r12
    1ba0:	6f ef       	ldi	r22, 0xFF	; 255
    1ba2:	0e 94 4d 07 	call	0xe9a	; 0xe9a <MCAL_Dio_WritePin>
    1ba6:	c7 01       	movw	r24, r14
    1ba8:	01 97       	sbiw	r24, 0x01	; 1
    1baa:	f1 f7       	brne	.-4      	; 0x1ba8 <HAL_LCD_sendCommand+0xee>
    1bac:	c6 01       	movw	r24, r12
    1bae:	60 e0       	ldi	r22, 0x00	; 0
    1bb0:	0e 94 4d 07 	call	0xe9a	; 0xe9a <MCAL_Dio_WritePin>
    1bb4:	c7 01       	movw	r24, r14
    1bb6:	01 97       	sbiw	r24, 0x01	; 1
    1bb8:	f1 f7       	brne	.-4      	; 0x1bb6 <HAL_LCD_sendCommand+0xfc>
    1bba:	40 2f       	mov	r20, r16
    1bbc:	41 70       	andi	r20, 0x01	; 1
    1bbe:	c5 01       	movw	r24, r10
    1bc0:	61 e0       	ldi	r22, 0x01	; 1
    1bc2:	0e 94 78 07 	call	0xef0	; 0xef0 <MCAL_Dio_WriteSinglePin>
    1bc6:	40 2f       	mov	r20, r16
    1bc8:	45 95       	asr	r20
    1bca:	41 70       	andi	r20, 0x01	; 1
    1bcc:	c5 01       	movw	r24, r10
    1bce:	62 e0       	ldi	r22, 0x02	; 2
    1bd0:	0e 94 78 07 	call	0xef0	; 0xef0 <MCAL_Dio_WriteSinglePin>
    1bd4:	05 95       	asr	r16
    1bd6:	05 95       	asr	r16
    1bd8:	40 2f       	mov	r20, r16
    1bda:	41 70       	andi	r20, 0x01	; 1
    1bdc:	c5 01       	movw	r24, r10
    1bde:	64 e0       	ldi	r22, 0x04	; 4
    1be0:	0e 94 78 07 	call	0xef0	; 0xef0 <MCAL_Dio_WriteSinglePin>
    1be4:	05 95       	asr	r16
    1be6:	01 70       	andi	r16, 0x01	; 1
    1be8:	c5 01       	movw	r24, r10
    1bea:	60 e1       	ldi	r22, 0x10	; 16
    1bec:	40 2f       	mov	r20, r16
    1bee:	0e 94 78 07 	call	0xef0	; 0xef0 <MCAL_Dio_WriteSinglePin>
    1bf2:	c7 01       	movw	r24, r14
    1bf4:	01 97       	sbiw	r24, 0x01	; 1
    1bf6:	f1 f7       	brne	.-4      	; 0x1bf4 <HAL_LCD_sendCommand+0x13a>
    1bf8:	c6 01       	movw	r24, r12
    1bfa:	6f ef       	ldi	r22, 0xFF	; 255
    1bfc:	0e 94 4d 07 	call	0xe9a	; 0xe9a <MCAL_Dio_WritePin>
    1c00:	c7 01       	movw	r24, r14
    1c02:	01 97       	sbiw	r24, 0x01	; 1
    1c04:	f1 f7       	brne	.-4      	; 0x1c02 <HAL_LCD_sendCommand+0x148>
    1c06:	c6 01       	movw	r24, r12
    1c08:	60 e0       	ldi	r22, 0x00	; 0
    1c0a:	0e 94 4d 07 	call	0xe9a	; 0xe9a <MCAL_Dio_WritePin>
    1c0e:	f7 01       	movw	r30, r14
    1c10:	31 97       	sbiw	r30, 0x01	; 1
    1c12:	f1 f7       	brne	.-4      	; 0x1c10 <HAL_LCD_sendCommand+0x156>
    1c14:	29 96       	adiw	r28, 0x09	; 9
    1c16:	0f b6       	in	r0, 0x3f	; 63
    1c18:	f8 94       	cli
    1c1a:	de bf       	out	0x3e, r29	; 62
    1c1c:	0f be       	out	0x3f, r0	; 63
    1c1e:	cd bf       	out	0x3d, r28	; 61
    1c20:	cf 91       	pop	r28
    1c22:	df 91       	pop	r29
    1c24:	0f 91       	pop	r16
    1c26:	ff 90       	pop	r15
    1c28:	ef 90       	pop	r14
    1c2a:	df 90       	pop	r13
    1c2c:	cf 90       	pop	r12
    1c2e:	bf 90       	pop	r11
    1c30:	af 90       	pop	r10
    1c32:	08 95       	ret

00001c34 <HAL_LCD_goToRowColumn>:
    1c34:	81 30       	cpi	r24, 0x01	; 1
    1c36:	41 f0       	breq	.+16     	; 0x1c48 <HAL_LCD_goToRowColumn+0x14>
    1c38:	81 30       	cpi	r24, 0x01	; 1
    1c3a:	58 f0       	brcs	.+22     	; 0x1c52 <HAL_LCD_goToRowColumn+0x1e>
    1c3c:	82 30       	cpi	r24, 0x02	; 2
    1c3e:	31 f0       	breq	.+12     	; 0x1c4c <HAL_LCD_goToRowColumn+0x18>
    1c40:	83 30       	cpi	r24, 0x03	; 3
    1c42:	31 f0       	breq	.+12     	; 0x1c50 <HAL_LCD_goToRowColumn+0x1c>
    1c44:	60 e0       	ldi	r22, 0x00	; 0
    1c46:	05 c0       	rjmp	.+10     	; 0x1c52 <HAL_LCD_goToRowColumn+0x1e>
    1c48:	60 5c       	subi	r22, 0xC0	; 192
    1c4a:	03 c0       	rjmp	.+6      	; 0x1c52 <HAL_LCD_goToRowColumn+0x1e>
    1c4c:	6c 5e       	subi	r22, 0xEC	; 236
    1c4e:	01 c0       	rjmp	.+2      	; 0x1c52 <HAL_LCD_goToRowColumn+0x1e>
    1c50:	6c 5a       	subi	r22, 0xAC	; 172
    1c52:	86 2f       	mov	r24, r22
    1c54:	80 68       	ori	r24, 0x80	; 128
    1c56:	0e 94 5d 0d 	call	0x1aba	; 0x1aba <HAL_LCD_sendCommand>
    1c5a:	08 95       	ret

00001c5c <HAL_LCD_displayIntegerRowColumn>:
    1c5c:	ef 92       	push	r14
    1c5e:	ff 92       	push	r15
    1c60:	0f 93       	push	r16
    1c62:	1f 93       	push	r17
    1c64:	7b 01       	movw	r14, r22
    1c66:	8c 01       	movw	r16, r24
    1c68:	84 2f       	mov	r24, r20
    1c6a:	62 2f       	mov	r22, r18
    1c6c:	0e 94 1a 0e 	call	0x1c34	; 0x1c34 <HAL_LCD_goToRowColumn>
    1c70:	c8 01       	movw	r24, r16
    1c72:	b7 01       	movw	r22, r14
    1c74:	0e 94 e6 0c 	call	0x19cc	; 0x19cc <HAL_LCD_integerToString>
    1c78:	1f 91       	pop	r17
    1c7a:	0f 91       	pop	r16
    1c7c:	ff 90       	pop	r15
    1c7e:	ef 90       	pop	r14
    1c80:	08 95       	ret

00001c82 <HAL_LCD_displaystringRowColumn>:
    1c82:	0f 93       	push	r16
    1c84:	1f 93       	push	r17
    1c86:	8c 01       	movw	r16, r24
    1c88:	86 2f       	mov	r24, r22
    1c8a:	64 2f       	mov	r22, r20
    1c8c:	0e 94 1a 0e 	call	0x1c34	; 0x1c34 <HAL_LCD_goToRowColumn>
    1c90:	c8 01       	movw	r24, r16
    1c92:	0e 94 d0 0c 	call	0x19a0	; 0x19a0 <HAL_LCD_sendString>
    1c96:	1f 91       	pop	r17
    1c98:	0f 91       	pop	r16
    1c9a:	08 95       	ret

00001c9c <HAL_LCD_clearScreen>:
    1c9c:	81 e0       	ldi	r24, 0x01	; 1
    1c9e:	0e 94 5d 0d 	call	0x1aba	; 0x1aba <HAL_LCD_sendCommand>
    1ca2:	80 e4       	ldi	r24, 0x40	; 64
    1ca4:	9c e9       	ldi	r25, 0x9C	; 156
    1ca6:	01 97       	sbiw	r24, 0x01	; 1
    1ca8:	f1 f7       	brne	.-4      	; 0x1ca6 <HAL_LCD_clearScreen+0xa>
    1caa:	86 e0       	ldi	r24, 0x06	; 6
    1cac:	0e 94 5d 0d 	call	0x1aba	; 0x1aba <HAL_LCD_sendCommand>
    1cb0:	08 95       	ret

00001cb2 <HAL_LCD_init>:
    1cb2:	1f 93       	push	r17
    1cb4:	df 93       	push	r29
    1cb6:	cf 93       	push	r28
    1cb8:	cd b7       	in	r28, 0x3d	; 61
    1cba:	de b7       	in	r29, 0x3e	; 62
    1cbc:	29 97       	sbiw	r28, 0x09	; 9
    1cbe:	0f b6       	in	r0, 0x3f	; 63
    1cc0:	f8 94       	cli
    1cc2:	de bf       	out	0x3e, r29	; 62
    1cc4:	0f be       	out	0x3f, r0	; 63
    1cc6:	cd bf       	out	0x3d, r28	; 61
    1cc8:	de 01       	movw	r26, r28
    1cca:	11 96       	adiw	r26, 0x01	; 1
    1ccc:	eb ed       	ldi	r30, 0xDB	; 219
    1cce:	f0 e0       	ldi	r31, 0x00	; 0
    1cd0:	83 e0       	ldi	r24, 0x03	; 3
    1cd2:	01 90       	ld	r0, Z+
    1cd4:	0d 92       	st	X+, r0
    1cd6:	81 50       	subi	r24, 0x01	; 1
    1cd8:	e1 f7       	brne	.-8      	; 0x1cd2 <HAL_LCD_init+0x20>
    1cda:	ce 01       	movw	r24, r28
    1cdc:	01 96       	adiw	r24, 0x01	; 1
    1cde:	0e 94 77 06 	call	0xcee	; 0xcee <MCAL_Dio_Init>
    1ce2:	de 01       	movw	r26, r28
    1ce4:	14 96       	adiw	r26, 0x04	; 4
    1ce6:	e8 ed       	ldi	r30, 0xD8	; 216
    1ce8:	f0 e0       	ldi	r31, 0x00	; 0
    1cea:	83 e0       	ldi	r24, 0x03	; 3
    1cec:	01 90       	ld	r0, Z+
    1cee:	0d 92       	st	X+, r0
    1cf0:	81 50       	subi	r24, 0x01	; 1
    1cf2:	e1 f7       	brne	.-8      	; 0x1cec <HAL_LCD_init+0x3a>
    1cf4:	ce 01       	movw	r24, r28
    1cf6:	04 96       	adiw	r24, 0x04	; 4
    1cf8:	0e 94 77 06 	call	0xcee	; 0xcee <MCAL_Dio_Init>
    1cfc:	de 01       	movw	r26, r28
    1cfe:	17 96       	adiw	r26, 0x07	; 7
    1d00:	e5 ed       	ldi	r30, 0xD5	; 213
    1d02:	f0 e0       	ldi	r31, 0x00	; 0
    1d04:	83 e0       	ldi	r24, 0x03	; 3
    1d06:	01 90       	ld	r0, Z+
    1d08:	0d 92       	st	X+, r0
    1d0a:	81 50       	subi	r24, 0x01	; 1
    1d0c:	e1 f7       	brne	.-8      	; 0x1d06 <HAL_LCD_init+0x54>
    1d0e:	ce 01       	movw	r24, r28
    1d10:	07 96       	adiw	r24, 0x07	; 7
    1d12:	0e 94 77 06 	call	0xcee	; 0xcee <MCAL_Dio_Init>
    1d16:	18 2f       	mov	r17, r24
    1d18:	8e e5       	ldi	r24, 0x5E	; 94
    1d1a:	91 e0       	ldi	r25, 0x01	; 1
    1d1c:	20 e9       	ldi	r18, 0x90	; 144
    1d1e:	31 e0       	ldi	r19, 0x01	; 1
    1d20:	f9 01       	movw	r30, r18
    1d22:	31 97       	sbiw	r30, 0x01	; 1
    1d24:	f1 f7       	brne	.-4      	; 0x1d22 <HAL_LCD_init+0x70>
    1d26:	01 97       	sbiw	r24, 0x01	; 1
    1d28:	d9 f7       	brne	.-10     	; 0x1d20 <HAL_LCD_init+0x6e>
    1d2a:	82 e0       	ldi	r24, 0x02	; 2
    1d2c:	0e 94 5d 0d 	call	0x1aba	; 0x1aba <HAL_LCD_sendCommand>
    1d30:	88 e2       	ldi	r24, 0x28	; 40
    1d32:	0e 94 5d 0d 	call	0x1aba	; 0x1aba <HAL_LCD_sendCommand>
    1d36:	80 e9       	ldi	r24, 0x90	; 144
    1d38:	91 e0       	ldi	r25, 0x01	; 1
    1d3a:	20 e9       	ldi	r18, 0x90	; 144
    1d3c:	31 e0       	ldi	r19, 0x01	; 1
    1d3e:	f9 01       	movw	r30, r18
    1d40:	31 97       	sbiw	r30, 0x01	; 1
    1d42:	f1 f7       	brne	.-4      	; 0x1d40 <HAL_LCD_init+0x8e>
    1d44:	01 97       	sbiw	r24, 0x01	; 1
    1d46:	d9 f7       	brne	.-10     	; 0x1d3e <HAL_LCD_init+0x8c>
    1d48:	8e e0       	ldi	r24, 0x0E	; 14
    1d4a:	0e 94 5d 0d 	call	0x1aba	; 0x1aba <HAL_LCD_sendCommand>
    1d4e:	80 e9       	ldi	r24, 0x90	; 144
    1d50:	91 e0       	ldi	r25, 0x01	; 1
    1d52:	20 e9       	ldi	r18, 0x90	; 144
    1d54:	31 e0       	ldi	r19, 0x01	; 1
    1d56:	f9 01       	movw	r30, r18
    1d58:	31 97       	sbiw	r30, 0x01	; 1
    1d5a:	f1 f7       	brne	.-4      	; 0x1d58 <HAL_LCD_init+0xa6>
    1d5c:	01 97       	sbiw	r24, 0x01	; 1
    1d5e:	d9 f7       	brne	.-10     	; 0x1d56 <HAL_LCD_init+0xa4>
    1d60:	81 e0       	ldi	r24, 0x01	; 1
    1d62:	0e 94 5d 0d 	call	0x1aba	; 0x1aba <HAL_LCD_sendCommand>
    1d66:	80 e4       	ldi	r24, 0x40	; 64
    1d68:	9f e1       	ldi	r25, 0x1F	; 31
    1d6a:	01 97       	sbiw	r24, 0x01	; 1
    1d6c:	f1 f7       	brne	.-4      	; 0x1d6a <HAL_LCD_init+0xb8>
    1d6e:	86 e0       	ldi	r24, 0x06	; 6
    1d70:	0e 94 5d 0d 	call	0x1aba	; 0x1aba <HAL_LCD_sendCommand>
    1d74:	81 2f       	mov	r24, r17
    1d76:	29 96       	adiw	r28, 0x09	; 9
    1d78:	0f b6       	in	r0, 0x3f	; 63
    1d7a:	f8 94       	cli
    1d7c:	de bf       	out	0x3e, r29	; 62
    1d7e:	0f be       	out	0x3f, r0	; 63
    1d80:	cd bf       	out	0x3d, r28	; 61
    1d82:	cf 91       	pop	r28
    1d84:	df 91       	pop	r29
    1d86:	1f 91       	pop	r17
    1d88:	08 95       	ret

00001d8a <HAL_KPD_getKey>:
    1d8a:	2f 92       	push	r2
    1d8c:	3f 92       	push	r3
    1d8e:	5f 92       	push	r5
    1d90:	6f 92       	push	r6
    1d92:	7f 92       	push	r7
    1d94:	8f 92       	push	r8
    1d96:	9f 92       	push	r9
    1d98:	af 92       	push	r10
    1d9a:	bf 92       	push	r11
    1d9c:	cf 92       	push	r12
    1d9e:	df 92       	push	r13
    1da0:	ef 92       	push	r14
    1da2:	ff 92       	push	r15
    1da4:	0f 93       	push	r16
    1da6:	1f 93       	push	r17
    1da8:	df 93       	push	r29
    1daa:	cf 93       	push	r28
    1dac:	cd b7       	in	r28, 0x3d	; 61
    1dae:	de b7       	in	r29, 0x3e	; 62
    1db0:	69 97       	sbiw	r28, 0x19	; 25
    1db2:	0f b6       	in	r0, 0x3f	; 63
    1db4:	f8 94       	cli
    1db6:	de bf       	out	0x3e, r29	; 62
    1db8:	0f be       	out	0x3f, r0	; 63
    1dba:	cd bf       	out	0x3d, r28	; 61
    1dbc:	2f ef       	ldi	r18, 0xFF	; 255
    1dbe:	29 83       	std	Y+1, r18	; 0x01
    1dc0:	92 e0       	ldi	r25, 0x02	; 2
    1dc2:	9a 83       	std	Y+2, r25	; 0x02
    1dc4:	40 e2       	ldi	r20, 0x20	; 32
    1dc6:	4b 83       	std	Y+3, r20	; 0x03
    1dc8:	2c 83       	std	Y+4, r18	; 0x04
    1dca:	9d 83       	std	Y+5, r25	; 0x05
    1dcc:	80 e1       	ldi	r24, 0x10	; 16
    1dce:	8e 83       	std	Y+6, r24	; 0x06
    1dd0:	2f 83       	std	Y+7, r18	; 0x07
    1dd2:	98 87       	std	Y+8, r25	; 0x08
    1dd4:	38 e0       	ldi	r19, 0x08	; 8
    1dd6:	39 87       	std	Y+9, r19	; 0x09
    1dd8:	2a 87       	std	Y+10, r18	; 0x0a
    1dda:	9b 87       	std	Y+11, r25	; 0x0b
    1ddc:	84 e0       	ldi	r24, 0x04	; 4
    1dde:	8c 87       	std	Y+12, r24	; 0x0c
    1de0:	2d 87       	std	Y+13, r18	; 0x0d
    1de2:	93 e0       	ldi	r25, 0x03	; 3
    1de4:	9e 87       	std	Y+14, r25	; 0x0e
    1de6:	80 e8       	ldi	r24, 0x80	; 128
    1de8:	8f 87       	std	Y+15, r24	; 0x0f
    1dea:	18 8a       	std	Y+16, r1	; 0x10
    1dec:	99 8b       	std	Y+17, r25	; 0x11
    1dee:	80 e4       	ldi	r24, 0x40	; 64
    1df0:	8a 8b       	std	Y+18, r24	; 0x12
    1df2:	1b 8a       	std	Y+19, r1	; 0x13
    1df4:	9c 8b       	std	Y+20, r25	; 0x14
    1df6:	4d 8b       	std	Y+21, r20	; 0x15
    1df8:	1e 8a       	std	Y+22, r1	; 0x16
    1dfa:	9f 8b       	std	Y+23, r25	; 0x17
    1dfc:	38 8f       	std	Y+24, r19	; 0x18
    1dfe:	19 8e       	std	Y+25, r1	; 0x19
    1e00:	32 e0       	ldi	r19, 0x02	; 2
    1e02:	e3 2e       	mov	r14, r19
    1e04:	f1 2c       	mov	r15, r1
    1e06:	ec 0e       	add	r14, r28
    1e08:	fd 1e       	adc	r15, r29
    1e0a:	bb 24       	eor	r11, r11
    1e0c:	2e e0       	ldi	r18, 0x0E	; 14
    1e0e:	22 2e       	mov	r2, r18
    1e10:	31 2c       	mov	r3, r1
    1e12:	2c 0e       	add	r2, r28
    1e14:	3d 1e       	adc	r3, r29
    1e16:	3e 01       	movw	r6, r28
    1e18:	08 94       	sec
    1e1a:	61 1c       	adc	r6, r1
    1e1c:	71 1c       	adc	r7, r1
    1e1e:	ae 2c       	mov	r10, r14
    1e20:	9f 2c       	mov	r9, r15
    1e22:	c7 01       	movw	r24, r14
    1e24:	60 e0       	ldi	r22, 0x00	; 0
    1e26:	0e 94 4d 07 	call	0xe9a	; 0xe9a <MCAL_Dio_WritePin>
    1e2a:	81 01       	movw	r16, r2
    1e2c:	cc 24       	eor	r12, r12
    1e2e:	dd 24       	eor	r13, r13
    1e30:	50 2e       	mov	r5, r16
    1e32:	81 2e       	mov	r8, r17
    1e34:	c8 01       	movw	r24, r16
    1e36:	f8 01       	movw	r30, r16
    1e38:	61 81       	ldd	r22, Z+1	; 0x01
    1e3a:	a3 01       	movw	r20, r6
    1e3c:	0e 94 01 08 	call	0x1002	; 0x1002 <MCAL_Dio_ReadSinglePin>
    1e40:	89 81       	ldd	r24, Y+1	; 0x01
    1e42:	88 23       	and	r24, r24
    1e44:	71 f5       	brne	.+92     	; 0x1ea2 <HAL_KPD_getKey+0x118>
    1e46:	88 ec       	ldi	r24, 0xC8	; 200
    1e48:	90 e0       	ldi	r25, 0x00	; 0
    1e4a:	20 e9       	ldi	r18, 0x90	; 144
    1e4c:	31 e0       	ldi	r19, 0x01	; 1
    1e4e:	f9 01       	movw	r30, r18
    1e50:	31 97       	sbiw	r30, 0x01	; 1
    1e52:	f1 f7       	brne	.-4      	; 0x1e50 <HAL_KPD_getKey+0xc6>
    1e54:	01 97       	sbiw	r24, 0x01	; 1
    1e56:	d9 f7       	brne	.-10     	; 0x1e4e <HAL_KPD_getKey+0xc4>
    1e58:	08 c0       	rjmp	.+16     	; 0x1e6a <HAL_KPD_getKey+0xe0>
    1e5a:	85 2d       	mov	r24, r5
    1e5c:	98 2d       	mov	r25, r8
    1e5e:	f8 01       	movw	r30, r16
    1e60:	60 81       	ld	r22, Z
    1e62:	a7 01       	movw	r20, r14
    1e64:	0e 94 01 08 	call	0x1002	; 0x1002 <MCAL_Dio_ReadSinglePin>
    1e68:	0d c0       	rjmp	.+26     	; 0x1e84 <HAL_KPD_getKey+0xfa>
    1e6a:	86 01       	movw	r16, r12
    1e6c:	00 0f       	add	r16, r16
    1e6e:	11 1f       	adc	r17, r17
    1e70:	0c 0d       	add	r16, r12
    1e72:	1d 1d       	adc	r17, r13
    1e74:	7e 01       	movw	r14, r28
    1e76:	08 94       	sec
    1e78:	e1 1c       	adc	r14, r1
    1e7a:	f1 1c       	adc	r15, r1
    1e7c:	0e 0d       	add	r16, r14
    1e7e:	1f 1d       	adc	r17, r15
    1e80:	02 5f       	subi	r16, 0xF2	; 242
    1e82:	1f 4f       	sbci	r17, 0xFF	; 255
    1e84:	89 81       	ldd	r24, Y+1	; 0x01
    1e86:	88 23       	and	r24, r24
    1e88:	41 f3       	breq	.-48     	; 0x1e5a <HAL_KPD_getKey+0xd0>
    1e8a:	eb 2d       	mov	r30, r11
    1e8c:	f0 e0       	ldi	r31, 0x00	; 0
    1e8e:	ee 0f       	add	r30, r30
    1e90:	ff 1f       	adc	r31, r31
    1e92:	ee 0f       	add	r30, r30
    1e94:	ff 1f       	adc	r31, r31
    1e96:	ec 0d       	add	r30, r12
    1e98:	fd 1d       	adc	r31, r13
    1e9a:	ed 54       	subi	r30, 0x4D	; 77
    1e9c:	ff 4f       	sbci	r31, 0xFF	; 255
    1e9e:	80 81       	ld	r24, Z
    1ea0:	18 c0       	rjmp	.+48     	; 0x1ed2 <HAL_KPD_getKey+0x148>
    1ea2:	08 94       	sec
    1ea4:	c1 1c       	adc	r12, r1
    1ea6:	d1 1c       	adc	r13, r1
    1ea8:	0d 5f       	subi	r16, 0xFD	; 253
    1eaa:	1f 4f       	sbci	r17, 0xFF	; 255
    1eac:	f4 e0       	ldi	r31, 0x04	; 4
    1eae:	cf 16       	cp	r12, r31
    1eb0:	d1 04       	cpc	r13, r1
    1eb2:	09 f0       	breq	.+2      	; 0x1eb6 <HAL_KPD_getKey+0x12c>
    1eb4:	bd cf       	rjmp	.-134    	; 0x1e30 <HAL_KPD_getKey+0xa6>
    1eb6:	8a 2d       	mov	r24, r10
    1eb8:	99 2d       	mov	r25, r9
    1eba:	6f ef       	ldi	r22, 0xFF	; 255
    1ebc:	0e 94 4d 07 	call	0xe9a	; 0xe9a <MCAL_Dio_WritePin>
    1ec0:	b3 94       	inc	r11
    1ec2:	83 e0       	ldi	r24, 0x03	; 3
    1ec4:	90 e0       	ldi	r25, 0x00	; 0
    1ec6:	e8 0e       	add	r14, r24
    1ec8:	f9 1e       	adc	r15, r25
    1eca:	94 e0       	ldi	r25, 0x04	; 4
    1ecc:	b9 16       	cp	r11, r25
    1ece:	09 f0       	breq	.+2      	; 0x1ed2 <HAL_KPD_getKey+0x148>
    1ed0:	a6 cf       	rjmp	.-180    	; 0x1e1e <HAL_KPD_getKey+0x94>
    1ed2:	69 96       	adiw	r28, 0x19	; 25
    1ed4:	0f b6       	in	r0, 0x3f	; 63
    1ed6:	f8 94       	cli
    1ed8:	de bf       	out	0x3e, r29	; 62
    1eda:	0f be       	out	0x3f, r0	; 63
    1edc:	cd bf       	out	0x3d, r28	; 61
    1ede:	cf 91       	pop	r28
    1ee0:	df 91       	pop	r29
    1ee2:	1f 91       	pop	r17
    1ee4:	0f 91       	pop	r16
    1ee6:	ff 90       	pop	r15
    1ee8:	ef 90       	pop	r14
    1eea:	df 90       	pop	r13
    1eec:	cf 90       	pop	r12
    1eee:	bf 90       	pop	r11
    1ef0:	af 90       	pop	r10
    1ef2:	9f 90       	pop	r9
    1ef4:	8f 90       	pop	r8
    1ef6:	7f 90       	pop	r7
    1ef8:	6f 90       	pop	r6
    1efa:	5f 90       	pop	r5
    1efc:	3f 90       	pop	r3
    1efe:	2f 90       	pop	r2
    1f00:	08 95       	ret

00001f02 <HAL_KPD_init>:
    1f02:	ef 92       	push	r14
    1f04:	ff 92       	push	r15
    1f06:	0f 93       	push	r16
    1f08:	1f 93       	push	r17
    1f0a:	df 93       	push	r29
    1f0c:	cf 93       	push	r28
    1f0e:	00 d0       	rcall	.+0      	; 0x1f10 <HAL_KPD_init+0xe>
    1f10:	00 d0       	rcall	.+0      	; 0x1f12 <HAL_KPD_init+0x10>
    1f12:	00 d0       	rcall	.+0      	; 0x1f14 <HAL_KPD_init+0x12>
    1f14:	cd b7       	in	r28, 0x3d	; 61
    1f16:	de b7       	in	r29, 0x3e	; 62
    1f18:	82 e0       	ldi	r24, 0x02	; 2
    1f1a:	89 83       	std	Y+1, r24	; 0x01
    1f1c:	8c e3       	ldi	r24, 0x3C	; 60
    1f1e:	8a 83       	std	Y+2, r24	; 0x02
    1f20:	8f ef       	ldi	r24, 0xFF	; 255
    1f22:	8b 83       	std	Y+3, r24	; 0x03
    1f24:	7e 01       	movw	r14, r28
    1f26:	08 94       	sec
    1f28:	e1 1c       	adc	r14, r1
    1f2a:	f1 1c       	adc	r15, r1
    1f2c:	c7 01       	movw	r24, r14
    1f2e:	0e 94 77 06 	call	0xcee	; 0xcee <MCAL_Dio_Init>
    1f32:	83 e0       	ldi	r24, 0x03	; 3
    1f34:	8c 83       	std	Y+4, r24	; 0x04
    1f36:	88 ee       	ldi	r24, 0xE8	; 232
    1f38:	8d 83       	std	Y+5, r24	; 0x05
    1f3a:	1e 82       	std	Y+6, r1	; 0x06
    1f3c:	8e 01       	movw	r16, r28
    1f3e:	0c 5f       	subi	r16, 0xFC	; 252
    1f40:	1f 4f       	sbci	r17, 0xFF	; 255
    1f42:	c8 01       	movw	r24, r16
    1f44:	0e 94 77 06 	call	0xcee	; 0xcee <MCAL_Dio_Init>
    1f48:	c8 01       	movw	r24, r16
    1f4a:	6f ef       	ldi	r22, 0xFF	; 255
    1f4c:	0e 94 4d 07 	call	0xe9a	; 0xe9a <MCAL_Dio_WritePin>
    1f50:	c7 01       	movw	r24, r14
    1f52:	6f ef       	ldi	r22, 0xFF	; 255
    1f54:	0e 94 4d 07 	call	0xe9a	; 0xe9a <MCAL_Dio_WritePin>
    1f58:	80 e0       	ldi	r24, 0x00	; 0
    1f5a:	26 96       	adiw	r28, 0x06	; 6
    1f5c:	0f b6       	in	r0, 0x3f	; 63
    1f5e:	f8 94       	cli
    1f60:	de bf       	out	0x3e, r29	; 62
    1f62:	0f be       	out	0x3f, r0	; 63
    1f64:	cd bf       	out	0x3d, r28	; 61
    1f66:	cf 91       	pop	r28
    1f68:	df 91       	pop	r29
    1f6a:	1f 91       	pop	r17
    1f6c:	0f 91       	pop	r16
    1f6e:	ff 90       	pop	r15
    1f70:	ef 90       	pop	r14
    1f72:	08 95       	ret

00001f74 <HAL_IR_Init>:
    1f74:	d9 98       	cbi	0x1b, 1	; 27
    1f76:	d9 9a       	sbi	0x1b, 1	; 27
    1f78:	08 95       	ret

00001f7a <HAL_IR_Read>:
    1f7a:	89 b3       	in	r24, 0x19	; 25
    1f7c:	86 95       	lsr	r24
    1f7e:	80 95       	com	r24
    1f80:	81 70       	andi	r24, 0x01	; 1
    1f82:	08 95       	ret

00001f84 <HAL_BUZZER_OFF>:
    1f84:	df 93       	push	r29
    1f86:	cf 93       	push	r28
    1f88:	00 d0       	rcall	.+0      	; 0x1f8a <HAL_BUZZER_OFF+0x6>
    1f8a:	0f 92       	push	r0
    1f8c:	cd b7       	in	r28, 0x3d	; 61
    1f8e:	de b7       	in	r29, 0x3e	; 62
    1f90:	89 83       	std	Y+1, r24	; 0x01
    1f92:	6a 83       	std	Y+2, r22	; 0x02
    1f94:	1b 82       	std	Y+3, r1	; 0x03
    1f96:	ce 01       	movw	r24, r28
    1f98:	01 96       	adiw	r24, 0x01	; 1
    1f9a:	60 e0       	ldi	r22, 0x00	; 0
    1f9c:	0e 94 4d 07 	call	0xe9a	; 0xe9a <MCAL_Dio_WritePin>
    1fa0:	0f 90       	pop	r0
    1fa2:	0f 90       	pop	r0
    1fa4:	0f 90       	pop	r0
    1fa6:	cf 91       	pop	r28
    1fa8:	df 91       	pop	r29
    1faa:	08 95       	ret

00001fac <HAL_BUZZER_ON>:
    1fac:	df 93       	push	r29
    1fae:	cf 93       	push	r28
    1fb0:	00 d0       	rcall	.+0      	; 0x1fb2 <HAL_BUZZER_ON+0x6>
    1fb2:	0f 92       	push	r0
    1fb4:	cd b7       	in	r28, 0x3d	; 61
    1fb6:	de b7       	in	r29, 0x3e	; 62
    1fb8:	89 83       	std	Y+1, r24	; 0x01
    1fba:	6a 83       	std	Y+2, r22	; 0x02
    1fbc:	1b 82       	std	Y+3, r1	; 0x03
    1fbe:	ce 01       	movw	r24, r28
    1fc0:	01 96       	adiw	r24, 0x01	; 1
    1fc2:	6f ef       	ldi	r22, 0xFF	; 255
    1fc4:	0e 94 4d 07 	call	0xe9a	; 0xe9a <MCAL_Dio_WritePin>
    1fc8:	0f 90       	pop	r0
    1fca:	0f 90       	pop	r0
    1fcc:	0f 90       	pop	r0
    1fce:	cf 91       	pop	r28
    1fd0:	df 91       	pop	r29
    1fd2:	08 95       	ret

00001fd4 <HAL_BUZZER_INIT>:
    1fd4:	df 93       	push	r29
    1fd6:	cf 93       	push	r28
    1fd8:	00 d0       	rcall	.+0      	; 0x1fda <HAL_BUZZER_INIT+0x6>
    1fda:	0f 92       	push	r0
    1fdc:	cd b7       	in	r28, 0x3d	; 61
    1fde:	de b7       	in	r29, 0x3e	; 62
    1fe0:	89 83       	std	Y+1, r24	; 0x01
    1fe2:	6a 83       	std	Y+2, r22	; 0x02
    1fe4:	8f ef       	ldi	r24, 0xFF	; 255
    1fe6:	8b 83       	std	Y+3, r24	; 0x03
    1fe8:	ce 01       	movw	r24, r28
    1fea:	01 96       	adiw	r24, 0x01	; 1
    1fec:	0e 94 77 06 	call	0xcee	; 0xcee <MCAL_Dio_Init>
    1ff0:	0f 90       	pop	r0
    1ff2:	0f 90       	pop	r0
    1ff4:	0f 90       	pop	r0
    1ff6:	cf 91       	pop	r28
    1ff8:	df 91       	pop	r29
    1ffa:	08 95       	ret

00001ffc <HAL_BUTTON_set_pullup>:
    1ffc:	df 93       	push	r29
    1ffe:	cf 93       	push	r28
    2000:	00 d0       	rcall	.+0      	; 0x2002 <HAL_BUTTON_set_pullup+0x6>
    2002:	0f 92       	push	r0
    2004:	cd b7       	in	r28, 0x3d	; 61
    2006:	de b7       	in	r29, 0x3e	; 62
    2008:	81 e0       	ldi	r24, 0x01	; 1
    200a:	89 83       	std	Y+1, r24	; 0x01
    200c:	8a 83       	std	Y+2, r24	; 0x02
    200e:	ce 01       	movw	r24, r28
    2010:	01 96       	adiw	r24, 0x01	; 1
    2012:	6f ef       	ldi	r22, 0xFF	; 255
    2014:	0e 94 4d 07 	call	0xe9a	; 0xe9a <MCAL_Dio_WritePin>
    2018:	80 e0       	ldi	r24, 0x00	; 0
    201a:	0f 90       	pop	r0
    201c:	0f 90       	pop	r0
    201e:	0f 90       	pop	r0
    2020:	cf 91       	pop	r28
    2022:	df 91       	pop	r29
    2024:	08 95       	ret

00002026 <HAL_BUTTON_read>:
    2026:	df 93       	push	r29
    2028:	cf 93       	push	r28
    202a:	00 d0       	rcall	.+0      	; 0x202c <HAL_BUTTON_read+0x6>
    202c:	0f 92       	push	r0
    202e:	cd b7       	in	r28, 0x3d	; 61
    2030:	de b7       	in	r29, 0x3e	; 62
    2032:	bc 01       	movw	r22, r24
    2034:	81 e0       	ldi	r24, 0x01	; 1
    2036:	89 83       	std	Y+1, r24	; 0x01
    2038:	8a 83       	std	Y+2, r24	; 0x02
    203a:	ce 01       	movw	r24, r28
    203c:	01 96       	adiw	r24, 0x01	; 1
    203e:	0e 94 08 07 	call	0xe10	; 0xe10 <MCAL_Dio_ReadPin>
    2042:	80 e0       	ldi	r24, 0x00	; 0
    2044:	0f 90       	pop	r0
    2046:	0f 90       	pop	r0
    2048:	0f 90       	pop	r0
    204a:	cf 91       	pop	r28
    204c:	df 91       	pop	r29
    204e:	08 95       	ret

00002050 <HAL_BUTTON_init>:
    2050:	df 93       	push	r29
    2052:	cf 93       	push	r28
    2054:	00 d0       	rcall	.+0      	; 0x2056 <HAL_BUTTON_init+0x6>
    2056:	0f 92       	push	r0
    2058:	cd b7       	in	r28, 0x3d	; 61
    205a:	de b7       	in	r29, 0x3e	; 62
    205c:	81 e0       	ldi	r24, 0x01	; 1
    205e:	89 83       	std	Y+1, r24	; 0x01
    2060:	8a 83       	std	Y+2, r24	; 0x02
    2062:	1b 82       	std	Y+3, r1	; 0x03
    2064:	ce 01       	movw	r24, r28
    2066:	01 96       	adiw	r24, 0x01	; 1
    2068:	0e 94 77 06 	call	0xcee	; 0xcee <MCAL_Dio_Init>
    206c:	80 e0       	ldi	r24, 0x00	; 0
    206e:	0f 90       	pop	r0
    2070:	0f 90       	pop	r0
    2072:	0f 90       	pop	r0
    2074:	cf 91       	pop	r28
    2076:	df 91       	pop	r29
    2078:	08 95       	ret

0000207a <App_start>:
    207a:	8a ea       	ldi	r24, 0xAA	; 170
    207c:	90 e0       	ldi	r25, 0x00	; 0
    207e:	0e 94 d0 0c 	call	0x19a0	; 0x19a0 <HAL_LCD_sendString>
    2082:	0e 94 b9 01 	call	0x372	; 0x372 <MCAL_UART_receive_sysch>
    2086:	8e 34       	cpi	r24, 0x4E	; 78
    2088:	89 f0       	breq	.+34     	; 0x20ac <App_start+0x32>
    208a:	8f 34       	cpi	r24, 0x4F	; 79
    208c:	19 f0       	breq	.+6      	; 0x2094 <App_start+0x1a>
    208e:	8c 34       	cpi	r24, 0x4C	; 76
    2090:	91 f4       	brne	.+36     	; 0x20b6 <App_start+0x3c>
    2092:	06 c0       	rjmp	.+12     	; 0x20a0 <App_start+0x26>
    2094:	8f e4       	ldi	r24, 0x4F	; 79
    2096:	0e 94 17 0c 	call	0x182e	; 0x182e <HAL_LCD_sendCharacter>
    209a:	0e 94 5f 00 	call	0xbe	; 0xbe <SERVICE_OPEN_DOOR>
    209e:	08 95       	ret
    20a0:	8c e4       	ldi	r24, 0x4C	; 76
    20a2:	0e 94 17 0c 	call	0x182e	; 0x182e <HAL_LCD_sendCharacter>
    20a6:	0e 94 68 00 	call	0xd0	; 0xd0 <lockHouse>
    20aa:	08 95       	ret
    20ac:	8e e4       	ldi	r24, 0x4E	; 78
    20ae:	0e 94 17 0c 	call	0x182e	; 0x182e <HAL_LCD_sendCharacter>
    20b2:	0e 94 57 00 	call	0xae	; 0xae <SERVICE_SET_ON_FLAG>
    20b6:	08 95       	ret

000020b8 <App_init>:
    20b8:	df 93       	push	r29
    20ba:	cf 93       	push	r28
    20bc:	cd b7       	in	r28, 0x3d	; 61
    20be:	de b7       	in	r29, 0x3e	; 62
    20c0:	27 97       	sbiw	r28, 0x07	; 7
    20c2:	0f b6       	in	r0, 0x3f	; 63
    20c4:	f8 94       	cli
    20c6:	de bf       	out	0x3e, r29	; 62
    20c8:	0f be       	out	0x3f, r0	; 63
    20ca:	cd bf       	out	0x3d, r28	; 61
    20cc:	0e 94 59 0e 	call	0x1cb2	; 0x1cb2 <HAL_LCD_init>
    20d0:	88 ee       	ldi	r24, 0xE8	; 232
    20d2:	93 e0       	ldi	r25, 0x03	; 3
    20d4:	20 e9       	ldi	r18, 0x90	; 144
    20d6:	31 e0       	ldi	r19, 0x01	; 1
    20d8:	f9 01       	movw	r30, r18
    20da:	31 97       	sbiw	r30, 0x01	; 1
    20dc:	f1 f7       	brne	.-4      	; 0x20da <App_init+0x22>
    20de:	01 97       	sbiw	r24, 0x01	; 1
    20e0:	d9 f7       	brne	.-10     	; 0x20d8 <App_init+0x20>
    20e2:	0e 94 83 08 	call	0x1106	; 0x1106 <MCAL_ADC_INIT>
    20e6:	0e 94 ba 0f 	call	0x1f74	; 0x1f74 <HAL_IR_Init>
    20ea:	85 b3       	in	r24, 0x15	; 21
    20ec:	66 e0       	ldi	r22, 0x06	; 6
    20ee:	0e 94 ea 0f 	call	0x1fd4	; 0x1fd4 <HAL_BUZZER_INIT>
    20f2:	0e 94 63 04 	call	0x8c6	; 0x8c6 <I2C_Init>
    20f6:	0e 94 e6 04 	call	0x9cc	; 0x9cc <TWI_init>
    20fa:	0e 94 d2 08 	call	0x11a4	; 0x11a4 <HAL_Solenoid_init>
    20fe:	0e 94 12 0c 	call	0x1824	; 0x1824 <HAL_LDR_Init>
    2102:	60 e8       	ldi	r22, 0x80	; 128
    2104:	75 e2       	ldi	r23, 0x25	; 37
    2106:	80 e0       	ldi	r24, 0x00	; 0
    2108:	90 e0       	ldi	r25, 0x00	; 0
    210a:	0e 94 7c 01 	call	0x2f8	; 0x2f8 <MCAL_UART_init>
    210e:	0e 94 17 09 	call	0x122e	; 0x122e <HAL_SERVO_INIT>
    2112:	de 01       	movw	r26, r28
    2114:	11 96       	adiw	r26, 0x01	; 1
    2116:	ee ed       	ldi	r30, 0xDE	; 222
    2118:	f0 e0       	ldi	r31, 0x00	; 0
    211a:	87 e0       	ldi	r24, 0x07	; 7
    211c:	01 90       	ld	r0, Z+
    211e:	0d 92       	st	X+, r0
    2120:	81 50       	subi	r24, 0x01	; 1
    2122:	e1 f7       	brne	.-8      	; 0x211c <App_init+0x64>
    2124:	ce 01       	movw	r24, r28
    2126:	01 96       	adiw	r24, 0x01	; 1
    2128:	0e 94 68 09 	call	0x12d0	; 0x12d0 <HAL_RTC_Init>
    212c:	80 e0       	ldi	r24, 0x00	; 0
    212e:	64 e0       	ldi	r22, 0x04	; 4
    2130:	0e 94 dc 0b 	call	0x17b8	; 0x17b8 <HAL_LED_INIT>
    2134:	27 96       	adiw	r28, 0x07	; 7
    2136:	0f b6       	in	r0, 0x3f	; 63
    2138:	f8 94       	cli
    213a:	de bf       	out	0x3e, r29	; 62
    213c:	0f be       	out	0x3f, r0	; 63
    213e:	cd bf       	out	0x3d, r28	; 61
    2140:	cf 91       	pop	r28
    2142:	df 91       	pop	r29
    2144:	08 95       	ret

00002146 <main>:
    2146:	0e 94 5c 10 	call	0x20b8	; 0x20b8 <App_init>
    214a:	0e 94 3d 10 	call	0x207a	; 0x207a <App_start>
    214e:	fd cf       	rjmp	.-6      	; 0x214a <main+0x4>

00002150 <__mulsi3>:
    2150:	62 9f       	mul	r22, r18
    2152:	d0 01       	movw	r26, r0
    2154:	73 9f       	mul	r23, r19
    2156:	f0 01       	movw	r30, r0
    2158:	82 9f       	mul	r24, r18
    215a:	e0 0d       	add	r30, r0
    215c:	f1 1d       	adc	r31, r1
    215e:	64 9f       	mul	r22, r20
    2160:	e0 0d       	add	r30, r0
    2162:	f1 1d       	adc	r31, r1
    2164:	92 9f       	mul	r25, r18
    2166:	f0 0d       	add	r31, r0
    2168:	83 9f       	mul	r24, r19
    216a:	f0 0d       	add	r31, r0
    216c:	74 9f       	mul	r23, r20
    216e:	f0 0d       	add	r31, r0
    2170:	65 9f       	mul	r22, r21
    2172:	f0 0d       	add	r31, r0
    2174:	99 27       	eor	r25, r25
    2176:	72 9f       	mul	r23, r18
    2178:	b0 0d       	add	r27, r0
    217a:	e1 1d       	adc	r30, r1
    217c:	f9 1f       	adc	r31, r25
    217e:	63 9f       	mul	r22, r19
    2180:	b0 0d       	add	r27, r0
    2182:	e1 1d       	adc	r30, r1
    2184:	f9 1f       	adc	r31, r25
    2186:	bd 01       	movw	r22, r26
    2188:	cf 01       	movw	r24, r30
    218a:	11 24       	eor	r1, r1
    218c:	08 95       	ret

0000218e <__udivmodqi4>:
    218e:	99 1b       	sub	r25, r25
    2190:	79 e0       	ldi	r23, 0x09	; 9
    2192:	04 c0       	rjmp	.+8      	; 0x219c <__udivmodqi4_ep>

00002194 <__udivmodqi4_loop>:
    2194:	99 1f       	adc	r25, r25
    2196:	96 17       	cp	r25, r22
    2198:	08 f0       	brcs	.+2      	; 0x219c <__udivmodqi4_ep>
    219a:	96 1b       	sub	r25, r22

0000219c <__udivmodqi4_ep>:
    219c:	88 1f       	adc	r24, r24
    219e:	7a 95       	dec	r23
    21a0:	c9 f7       	brne	.-14     	; 0x2194 <__udivmodqi4_loop>
    21a2:	80 95       	com	r24
    21a4:	08 95       	ret

000021a6 <__udivmodsi4>:
    21a6:	a1 e2       	ldi	r26, 0x21	; 33
    21a8:	1a 2e       	mov	r1, r26
    21aa:	aa 1b       	sub	r26, r26
    21ac:	bb 1b       	sub	r27, r27
    21ae:	fd 01       	movw	r30, r26
    21b0:	0d c0       	rjmp	.+26     	; 0x21cc <__udivmodsi4_ep>

000021b2 <__udivmodsi4_loop>:
    21b2:	aa 1f       	adc	r26, r26
    21b4:	bb 1f       	adc	r27, r27
    21b6:	ee 1f       	adc	r30, r30
    21b8:	ff 1f       	adc	r31, r31
    21ba:	a2 17       	cp	r26, r18
    21bc:	b3 07       	cpc	r27, r19
    21be:	e4 07       	cpc	r30, r20
    21c0:	f5 07       	cpc	r31, r21
    21c2:	20 f0       	brcs	.+8      	; 0x21cc <__udivmodsi4_ep>
    21c4:	a2 1b       	sub	r26, r18
    21c6:	b3 0b       	sbc	r27, r19
    21c8:	e4 0b       	sbc	r30, r20
    21ca:	f5 0b       	sbc	r31, r21

000021cc <__udivmodsi4_ep>:
    21cc:	66 1f       	adc	r22, r22
    21ce:	77 1f       	adc	r23, r23
    21d0:	88 1f       	adc	r24, r24
    21d2:	99 1f       	adc	r25, r25
    21d4:	1a 94       	dec	r1
    21d6:	69 f7       	brne	.-38     	; 0x21b2 <__udivmodsi4_loop>
    21d8:	60 95       	com	r22
    21da:	70 95       	com	r23
    21dc:	80 95       	com	r24
    21de:	90 95       	com	r25
    21e0:	9b 01       	movw	r18, r22
    21e2:	ac 01       	movw	r20, r24
    21e4:	bd 01       	movw	r22, r26
    21e6:	cf 01       	movw	r24, r30
    21e8:	08 95       	ret

000021ea <__divmodsi4>:
    21ea:	97 fb       	bst	r25, 7
    21ec:	09 2e       	mov	r0, r25
    21ee:	05 26       	eor	r0, r21
    21f0:	0e d0       	rcall	.+28     	; 0x220e <__divmodsi4_neg1>
    21f2:	57 fd       	sbrc	r21, 7
    21f4:	04 d0       	rcall	.+8      	; 0x21fe <__divmodsi4_neg2>
    21f6:	d7 df       	rcall	.-82     	; 0x21a6 <__udivmodsi4>
    21f8:	0a d0       	rcall	.+20     	; 0x220e <__divmodsi4_neg1>
    21fa:	00 1c       	adc	r0, r0
    21fc:	38 f4       	brcc	.+14     	; 0x220c <__divmodsi4_exit>

000021fe <__divmodsi4_neg2>:
    21fe:	50 95       	com	r21
    2200:	40 95       	com	r20
    2202:	30 95       	com	r19
    2204:	21 95       	neg	r18
    2206:	3f 4f       	sbci	r19, 0xFF	; 255
    2208:	4f 4f       	sbci	r20, 0xFF	; 255
    220a:	5f 4f       	sbci	r21, 0xFF	; 255

0000220c <__divmodsi4_exit>:
    220c:	08 95       	ret

0000220e <__divmodsi4_neg1>:
    220e:	f6 f7       	brtc	.-4      	; 0x220c <__divmodsi4_exit>
    2210:	90 95       	com	r25
    2212:	80 95       	com	r24
    2214:	70 95       	com	r23
    2216:	61 95       	neg	r22
    2218:	7f 4f       	sbci	r23, 0xFF	; 255
    221a:	8f 4f       	sbci	r24, 0xFF	; 255
    221c:	9f 4f       	sbci	r25, 0xFF	; 255
    221e:	08 95       	ret

00002220 <sprintf>:
    2220:	ae e0       	ldi	r26, 0x0E	; 14
    2222:	b0 e0       	ldi	r27, 0x00	; 0
    2224:	e6 e1       	ldi	r30, 0x16	; 22
    2226:	f1 e1       	ldi	r31, 0x11	; 17
    2228:	0c 94 bf 13 	jmp	0x277e	; 0x277e <__prologue_saves__+0x1c>
    222c:	0d 89       	ldd	r16, Y+21	; 0x15
    222e:	1e 89       	ldd	r17, Y+22	; 0x16
    2230:	86 e0       	ldi	r24, 0x06	; 6
    2232:	8c 83       	std	Y+4, r24	; 0x04
    2234:	1a 83       	std	Y+2, r17	; 0x02
    2236:	09 83       	std	Y+1, r16	; 0x01
    2238:	8f ef       	ldi	r24, 0xFF	; 255
    223a:	9f e7       	ldi	r25, 0x7F	; 127
    223c:	9e 83       	std	Y+6, r25	; 0x06
    223e:	8d 83       	std	Y+5, r24	; 0x05
    2240:	9e 01       	movw	r18, r28
    2242:	27 5e       	subi	r18, 0xE7	; 231
    2244:	3f 4f       	sbci	r19, 0xFF	; 255
    2246:	ce 01       	movw	r24, r28
    2248:	01 96       	adiw	r24, 0x01	; 1
    224a:	6f 89       	ldd	r22, Y+23	; 0x17
    224c:	78 8d       	ldd	r23, Y+24	; 0x18
    224e:	a9 01       	movw	r20, r18
    2250:	0e 94 34 11 	call	0x2268	; 0x2268 <vfprintf>
    2254:	2f 81       	ldd	r18, Y+7	; 0x07
    2256:	38 85       	ldd	r19, Y+8	; 0x08
    2258:	02 0f       	add	r16, r18
    225a:	13 1f       	adc	r17, r19
    225c:	f8 01       	movw	r30, r16
    225e:	10 82       	st	Z, r1
    2260:	2e 96       	adiw	r28, 0x0e	; 14
    2262:	e4 e0       	ldi	r30, 0x04	; 4
    2264:	0c 94 db 13 	jmp	0x27b6	; 0x27b6 <__epilogue_restores__+0x1c>

00002268 <vfprintf>:
    2268:	ab e0       	ldi	r26, 0x0B	; 11
    226a:	b0 e0       	ldi	r27, 0x00	; 0
    226c:	ea e3       	ldi	r30, 0x3A	; 58
    226e:	f1 e1       	ldi	r31, 0x11	; 17
    2270:	0c 94 b1 13 	jmp	0x2762	; 0x2762 <__prologue_saves__>
    2274:	3c 01       	movw	r6, r24
    2276:	2b 01       	movw	r4, r22
    2278:	5a 01       	movw	r10, r20
    227a:	fc 01       	movw	r30, r24
    227c:	17 82       	std	Z+7, r1	; 0x07
    227e:	16 82       	std	Z+6, r1	; 0x06
    2280:	83 81       	ldd	r24, Z+3	; 0x03
    2282:	81 fd       	sbrc	r24, 1
    2284:	03 c0       	rjmp	.+6      	; 0x228c <vfprintf+0x24>
    2286:	6f ef       	ldi	r22, 0xFF	; 255
    2288:	7f ef       	ldi	r23, 0xFF	; 255
    228a:	c6 c1       	rjmp	.+908    	; 0x2618 <vfprintf+0x3b0>
    228c:	9a e0       	ldi	r25, 0x0A	; 10
    228e:	89 2e       	mov	r8, r25
    2290:	1e 01       	movw	r2, r28
    2292:	08 94       	sec
    2294:	21 1c       	adc	r2, r1
    2296:	31 1c       	adc	r3, r1
    2298:	f3 01       	movw	r30, r6
    229a:	23 81       	ldd	r18, Z+3	; 0x03
    229c:	f2 01       	movw	r30, r4
    229e:	23 fd       	sbrc	r18, 3
    22a0:	85 91       	lpm	r24, Z+
    22a2:	23 ff       	sbrs	r18, 3
    22a4:	81 91       	ld	r24, Z+
    22a6:	2f 01       	movw	r4, r30
    22a8:	88 23       	and	r24, r24
    22aa:	09 f4       	brne	.+2      	; 0x22ae <vfprintf+0x46>
    22ac:	b2 c1       	rjmp	.+868    	; 0x2612 <vfprintf+0x3aa>
    22ae:	85 32       	cpi	r24, 0x25	; 37
    22b0:	39 f4       	brne	.+14     	; 0x22c0 <vfprintf+0x58>
    22b2:	23 fd       	sbrc	r18, 3
    22b4:	85 91       	lpm	r24, Z+
    22b6:	23 ff       	sbrs	r18, 3
    22b8:	81 91       	ld	r24, Z+
    22ba:	2f 01       	movw	r4, r30
    22bc:	85 32       	cpi	r24, 0x25	; 37
    22be:	29 f4       	brne	.+10     	; 0x22ca <vfprintf+0x62>
    22c0:	90 e0       	ldi	r25, 0x00	; 0
    22c2:	b3 01       	movw	r22, r6
    22c4:	0e 94 27 13 	call	0x264e	; 0x264e <fputc>
    22c8:	e7 cf       	rjmp	.-50     	; 0x2298 <vfprintf+0x30>
    22ca:	98 2f       	mov	r25, r24
    22cc:	ff 24       	eor	r15, r15
    22ce:	ee 24       	eor	r14, r14
    22d0:	99 24       	eor	r9, r9
    22d2:	ff e1       	ldi	r31, 0x1F	; 31
    22d4:	ff 15       	cp	r31, r15
    22d6:	d0 f0       	brcs	.+52     	; 0x230c <vfprintf+0xa4>
    22d8:	9b 32       	cpi	r25, 0x2B	; 43
    22da:	69 f0       	breq	.+26     	; 0x22f6 <vfprintf+0x8e>
    22dc:	9c 32       	cpi	r25, 0x2C	; 44
    22de:	28 f4       	brcc	.+10     	; 0x22ea <vfprintf+0x82>
    22e0:	90 32       	cpi	r25, 0x20	; 32
    22e2:	59 f0       	breq	.+22     	; 0x22fa <vfprintf+0x92>
    22e4:	93 32       	cpi	r25, 0x23	; 35
    22e6:	91 f4       	brne	.+36     	; 0x230c <vfprintf+0xa4>
    22e8:	0e c0       	rjmp	.+28     	; 0x2306 <vfprintf+0x9e>
    22ea:	9d 32       	cpi	r25, 0x2D	; 45
    22ec:	49 f0       	breq	.+18     	; 0x2300 <vfprintf+0x98>
    22ee:	90 33       	cpi	r25, 0x30	; 48
    22f0:	69 f4       	brne	.+26     	; 0x230c <vfprintf+0xa4>
    22f2:	41 e0       	ldi	r20, 0x01	; 1
    22f4:	24 c0       	rjmp	.+72     	; 0x233e <vfprintf+0xd6>
    22f6:	52 e0       	ldi	r21, 0x02	; 2
    22f8:	f5 2a       	or	r15, r21
    22fa:	84 e0       	ldi	r24, 0x04	; 4
    22fc:	f8 2a       	or	r15, r24
    22fe:	28 c0       	rjmp	.+80     	; 0x2350 <vfprintf+0xe8>
    2300:	98 e0       	ldi	r25, 0x08	; 8
    2302:	f9 2a       	or	r15, r25
    2304:	25 c0       	rjmp	.+74     	; 0x2350 <vfprintf+0xe8>
    2306:	e0 e1       	ldi	r30, 0x10	; 16
    2308:	fe 2a       	or	r15, r30
    230a:	22 c0       	rjmp	.+68     	; 0x2350 <vfprintf+0xe8>
    230c:	f7 fc       	sbrc	r15, 7
    230e:	29 c0       	rjmp	.+82     	; 0x2362 <vfprintf+0xfa>
    2310:	89 2f       	mov	r24, r25
    2312:	80 53       	subi	r24, 0x30	; 48
    2314:	8a 30       	cpi	r24, 0x0A	; 10
    2316:	70 f4       	brcc	.+28     	; 0x2334 <vfprintf+0xcc>
    2318:	f6 fe       	sbrs	r15, 6
    231a:	05 c0       	rjmp	.+10     	; 0x2326 <vfprintf+0xbe>
    231c:	98 9c       	mul	r9, r8
    231e:	90 2c       	mov	r9, r0
    2320:	11 24       	eor	r1, r1
    2322:	98 0e       	add	r9, r24
    2324:	15 c0       	rjmp	.+42     	; 0x2350 <vfprintf+0xe8>
    2326:	e8 9c       	mul	r14, r8
    2328:	e0 2c       	mov	r14, r0
    232a:	11 24       	eor	r1, r1
    232c:	e8 0e       	add	r14, r24
    232e:	f0 e2       	ldi	r31, 0x20	; 32
    2330:	ff 2a       	or	r15, r31
    2332:	0e c0       	rjmp	.+28     	; 0x2350 <vfprintf+0xe8>
    2334:	9e 32       	cpi	r25, 0x2E	; 46
    2336:	29 f4       	brne	.+10     	; 0x2342 <vfprintf+0xda>
    2338:	f6 fc       	sbrc	r15, 6
    233a:	6b c1       	rjmp	.+726    	; 0x2612 <vfprintf+0x3aa>
    233c:	40 e4       	ldi	r20, 0x40	; 64
    233e:	f4 2a       	or	r15, r20
    2340:	07 c0       	rjmp	.+14     	; 0x2350 <vfprintf+0xe8>
    2342:	9c 36       	cpi	r25, 0x6C	; 108
    2344:	19 f4       	brne	.+6      	; 0x234c <vfprintf+0xe4>
    2346:	50 e8       	ldi	r21, 0x80	; 128
    2348:	f5 2a       	or	r15, r21
    234a:	02 c0       	rjmp	.+4      	; 0x2350 <vfprintf+0xe8>
    234c:	98 36       	cpi	r25, 0x68	; 104
    234e:	49 f4       	brne	.+18     	; 0x2362 <vfprintf+0xfa>
    2350:	f2 01       	movw	r30, r4
    2352:	23 fd       	sbrc	r18, 3
    2354:	95 91       	lpm	r25, Z+
    2356:	23 ff       	sbrs	r18, 3
    2358:	91 91       	ld	r25, Z+
    235a:	2f 01       	movw	r4, r30
    235c:	99 23       	and	r25, r25
    235e:	09 f0       	breq	.+2      	; 0x2362 <vfprintf+0xfa>
    2360:	b8 cf       	rjmp	.-144    	; 0x22d2 <vfprintf+0x6a>
    2362:	89 2f       	mov	r24, r25
    2364:	85 54       	subi	r24, 0x45	; 69
    2366:	83 30       	cpi	r24, 0x03	; 3
    2368:	18 f0       	brcs	.+6      	; 0x2370 <vfprintf+0x108>
    236a:	80 52       	subi	r24, 0x20	; 32
    236c:	83 30       	cpi	r24, 0x03	; 3
    236e:	38 f4       	brcc	.+14     	; 0x237e <vfprintf+0x116>
    2370:	44 e0       	ldi	r20, 0x04	; 4
    2372:	50 e0       	ldi	r21, 0x00	; 0
    2374:	a4 0e       	add	r10, r20
    2376:	b5 1e       	adc	r11, r21
    2378:	5f e3       	ldi	r21, 0x3F	; 63
    237a:	59 83       	std	Y+1, r21	; 0x01
    237c:	0f c0       	rjmp	.+30     	; 0x239c <vfprintf+0x134>
    237e:	93 36       	cpi	r25, 0x63	; 99
    2380:	31 f0       	breq	.+12     	; 0x238e <vfprintf+0x126>
    2382:	93 37       	cpi	r25, 0x73	; 115
    2384:	79 f0       	breq	.+30     	; 0x23a4 <vfprintf+0x13c>
    2386:	93 35       	cpi	r25, 0x53	; 83
    2388:	09 f0       	breq	.+2      	; 0x238c <vfprintf+0x124>
    238a:	56 c0       	rjmp	.+172    	; 0x2438 <vfprintf+0x1d0>
    238c:	20 c0       	rjmp	.+64     	; 0x23ce <vfprintf+0x166>
    238e:	f5 01       	movw	r30, r10
    2390:	80 81       	ld	r24, Z
    2392:	89 83       	std	Y+1, r24	; 0x01
    2394:	42 e0       	ldi	r20, 0x02	; 2
    2396:	50 e0       	ldi	r21, 0x00	; 0
    2398:	a4 0e       	add	r10, r20
    239a:	b5 1e       	adc	r11, r21
    239c:	61 01       	movw	r12, r2
    239e:	01 e0       	ldi	r16, 0x01	; 1
    23a0:	10 e0       	ldi	r17, 0x00	; 0
    23a2:	12 c0       	rjmp	.+36     	; 0x23c8 <vfprintf+0x160>
    23a4:	f5 01       	movw	r30, r10
    23a6:	c0 80       	ld	r12, Z
    23a8:	d1 80       	ldd	r13, Z+1	; 0x01
    23aa:	f6 fc       	sbrc	r15, 6
    23ac:	03 c0       	rjmp	.+6      	; 0x23b4 <vfprintf+0x14c>
    23ae:	6f ef       	ldi	r22, 0xFF	; 255
    23b0:	7f ef       	ldi	r23, 0xFF	; 255
    23b2:	02 c0       	rjmp	.+4      	; 0x23b8 <vfprintf+0x150>
    23b4:	69 2d       	mov	r22, r9
    23b6:	70 e0       	ldi	r23, 0x00	; 0
    23b8:	42 e0       	ldi	r20, 0x02	; 2
    23ba:	50 e0       	ldi	r21, 0x00	; 0
    23bc:	a4 0e       	add	r10, r20
    23be:	b5 1e       	adc	r11, r21
    23c0:	c6 01       	movw	r24, r12
    23c2:	0e 94 1c 13 	call	0x2638	; 0x2638 <strnlen>
    23c6:	8c 01       	movw	r16, r24
    23c8:	5f e7       	ldi	r21, 0x7F	; 127
    23ca:	f5 22       	and	r15, r21
    23cc:	14 c0       	rjmp	.+40     	; 0x23f6 <vfprintf+0x18e>
    23ce:	f5 01       	movw	r30, r10
    23d0:	c0 80       	ld	r12, Z
    23d2:	d1 80       	ldd	r13, Z+1	; 0x01
    23d4:	f6 fc       	sbrc	r15, 6
    23d6:	03 c0       	rjmp	.+6      	; 0x23de <vfprintf+0x176>
    23d8:	6f ef       	ldi	r22, 0xFF	; 255
    23da:	7f ef       	ldi	r23, 0xFF	; 255
    23dc:	02 c0       	rjmp	.+4      	; 0x23e2 <vfprintf+0x17a>
    23de:	69 2d       	mov	r22, r9
    23e0:	70 e0       	ldi	r23, 0x00	; 0
    23e2:	42 e0       	ldi	r20, 0x02	; 2
    23e4:	50 e0       	ldi	r21, 0x00	; 0
    23e6:	a4 0e       	add	r10, r20
    23e8:	b5 1e       	adc	r11, r21
    23ea:	c6 01       	movw	r24, r12
    23ec:	0e 94 11 13 	call	0x2622	; 0x2622 <strnlen_P>
    23f0:	8c 01       	movw	r16, r24
    23f2:	50 e8       	ldi	r21, 0x80	; 128
    23f4:	f5 2a       	or	r15, r21
    23f6:	f3 fe       	sbrs	r15, 3
    23f8:	07 c0       	rjmp	.+14     	; 0x2408 <vfprintf+0x1a0>
    23fa:	1a c0       	rjmp	.+52     	; 0x2430 <vfprintf+0x1c8>
    23fc:	80 e2       	ldi	r24, 0x20	; 32
    23fe:	90 e0       	ldi	r25, 0x00	; 0
    2400:	b3 01       	movw	r22, r6
    2402:	0e 94 27 13 	call	0x264e	; 0x264e <fputc>
    2406:	ea 94       	dec	r14
    2408:	8e 2d       	mov	r24, r14
    240a:	90 e0       	ldi	r25, 0x00	; 0
    240c:	08 17       	cp	r16, r24
    240e:	19 07       	cpc	r17, r25
    2410:	a8 f3       	brcs	.-22     	; 0x23fc <vfprintf+0x194>
    2412:	0e c0       	rjmp	.+28     	; 0x2430 <vfprintf+0x1c8>
    2414:	f6 01       	movw	r30, r12
    2416:	f7 fc       	sbrc	r15, 7
    2418:	85 91       	lpm	r24, Z+
    241a:	f7 fe       	sbrs	r15, 7
    241c:	81 91       	ld	r24, Z+
    241e:	6f 01       	movw	r12, r30
    2420:	90 e0       	ldi	r25, 0x00	; 0
    2422:	b3 01       	movw	r22, r6
    2424:	0e 94 27 13 	call	0x264e	; 0x264e <fputc>
    2428:	e1 10       	cpse	r14, r1
    242a:	ea 94       	dec	r14
    242c:	01 50       	subi	r16, 0x01	; 1
    242e:	10 40       	sbci	r17, 0x00	; 0
    2430:	01 15       	cp	r16, r1
    2432:	11 05       	cpc	r17, r1
    2434:	79 f7       	brne	.-34     	; 0x2414 <vfprintf+0x1ac>
    2436:	ea c0       	rjmp	.+468    	; 0x260c <vfprintf+0x3a4>
    2438:	94 36       	cpi	r25, 0x64	; 100
    243a:	11 f0       	breq	.+4      	; 0x2440 <vfprintf+0x1d8>
    243c:	99 36       	cpi	r25, 0x69	; 105
    243e:	69 f5       	brne	.+90     	; 0x249a <vfprintf+0x232>
    2440:	f7 fe       	sbrs	r15, 7
    2442:	08 c0       	rjmp	.+16     	; 0x2454 <vfprintf+0x1ec>
    2444:	f5 01       	movw	r30, r10
    2446:	20 81       	ld	r18, Z
    2448:	31 81       	ldd	r19, Z+1	; 0x01
    244a:	42 81       	ldd	r20, Z+2	; 0x02
    244c:	53 81       	ldd	r21, Z+3	; 0x03
    244e:	84 e0       	ldi	r24, 0x04	; 4
    2450:	90 e0       	ldi	r25, 0x00	; 0
    2452:	0a c0       	rjmp	.+20     	; 0x2468 <vfprintf+0x200>
    2454:	f5 01       	movw	r30, r10
    2456:	80 81       	ld	r24, Z
    2458:	91 81       	ldd	r25, Z+1	; 0x01
    245a:	9c 01       	movw	r18, r24
    245c:	44 27       	eor	r20, r20
    245e:	37 fd       	sbrc	r19, 7
    2460:	40 95       	com	r20
    2462:	54 2f       	mov	r21, r20
    2464:	82 e0       	ldi	r24, 0x02	; 2
    2466:	90 e0       	ldi	r25, 0x00	; 0
    2468:	a8 0e       	add	r10, r24
    246a:	b9 1e       	adc	r11, r25
    246c:	9f e6       	ldi	r25, 0x6F	; 111
    246e:	f9 22       	and	r15, r25
    2470:	57 ff       	sbrs	r21, 7
    2472:	09 c0       	rjmp	.+18     	; 0x2486 <vfprintf+0x21e>
    2474:	50 95       	com	r21
    2476:	40 95       	com	r20
    2478:	30 95       	com	r19
    247a:	21 95       	neg	r18
    247c:	3f 4f       	sbci	r19, 0xFF	; 255
    247e:	4f 4f       	sbci	r20, 0xFF	; 255
    2480:	5f 4f       	sbci	r21, 0xFF	; 255
    2482:	e0 e8       	ldi	r30, 0x80	; 128
    2484:	fe 2a       	or	r15, r30
    2486:	ca 01       	movw	r24, r20
    2488:	b9 01       	movw	r22, r18
    248a:	a1 01       	movw	r20, r2
    248c:	2a e0       	ldi	r18, 0x0A	; 10
    248e:	30 e0       	ldi	r19, 0x00	; 0
    2490:	0e 94 53 13 	call	0x26a6	; 0x26a6 <__ultoa_invert>
    2494:	d8 2e       	mov	r13, r24
    2496:	d2 18       	sub	r13, r2
    2498:	40 c0       	rjmp	.+128    	; 0x251a <vfprintf+0x2b2>
    249a:	95 37       	cpi	r25, 0x75	; 117
    249c:	29 f4       	brne	.+10     	; 0x24a8 <vfprintf+0x240>
    249e:	1f 2d       	mov	r17, r15
    24a0:	1f 7e       	andi	r17, 0xEF	; 239
    24a2:	2a e0       	ldi	r18, 0x0A	; 10
    24a4:	30 e0       	ldi	r19, 0x00	; 0
    24a6:	1d c0       	rjmp	.+58     	; 0x24e2 <vfprintf+0x27a>
    24a8:	1f 2d       	mov	r17, r15
    24aa:	19 7f       	andi	r17, 0xF9	; 249
    24ac:	9f 36       	cpi	r25, 0x6F	; 111
    24ae:	61 f0       	breq	.+24     	; 0x24c8 <vfprintf+0x260>
    24b0:	90 37       	cpi	r25, 0x70	; 112
    24b2:	20 f4       	brcc	.+8      	; 0x24bc <vfprintf+0x254>
    24b4:	98 35       	cpi	r25, 0x58	; 88
    24b6:	09 f0       	breq	.+2      	; 0x24ba <vfprintf+0x252>
    24b8:	ac c0       	rjmp	.+344    	; 0x2612 <vfprintf+0x3aa>
    24ba:	0f c0       	rjmp	.+30     	; 0x24da <vfprintf+0x272>
    24bc:	90 37       	cpi	r25, 0x70	; 112
    24be:	39 f0       	breq	.+14     	; 0x24ce <vfprintf+0x266>
    24c0:	98 37       	cpi	r25, 0x78	; 120
    24c2:	09 f0       	breq	.+2      	; 0x24c6 <vfprintf+0x25e>
    24c4:	a6 c0       	rjmp	.+332    	; 0x2612 <vfprintf+0x3aa>
    24c6:	04 c0       	rjmp	.+8      	; 0x24d0 <vfprintf+0x268>
    24c8:	28 e0       	ldi	r18, 0x08	; 8
    24ca:	30 e0       	ldi	r19, 0x00	; 0
    24cc:	0a c0       	rjmp	.+20     	; 0x24e2 <vfprintf+0x27a>
    24ce:	10 61       	ori	r17, 0x10	; 16
    24d0:	14 fd       	sbrc	r17, 4
    24d2:	14 60       	ori	r17, 0x04	; 4
    24d4:	20 e1       	ldi	r18, 0x10	; 16
    24d6:	30 e0       	ldi	r19, 0x00	; 0
    24d8:	04 c0       	rjmp	.+8      	; 0x24e2 <vfprintf+0x27a>
    24da:	14 fd       	sbrc	r17, 4
    24dc:	16 60       	ori	r17, 0x06	; 6
    24de:	20 e1       	ldi	r18, 0x10	; 16
    24e0:	32 e0       	ldi	r19, 0x02	; 2
    24e2:	17 ff       	sbrs	r17, 7
    24e4:	08 c0       	rjmp	.+16     	; 0x24f6 <vfprintf+0x28e>
    24e6:	f5 01       	movw	r30, r10
    24e8:	60 81       	ld	r22, Z
    24ea:	71 81       	ldd	r23, Z+1	; 0x01
    24ec:	82 81       	ldd	r24, Z+2	; 0x02
    24ee:	93 81       	ldd	r25, Z+3	; 0x03
    24f0:	44 e0       	ldi	r20, 0x04	; 4
    24f2:	50 e0       	ldi	r21, 0x00	; 0
    24f4:	08 c0       	rjmp	.+16     	; 0x2506 <vfprintf+0x29e>
    24f6:	f5 01       	movw	r30, r10
    24f8:	80 81       	ld	r24, Z
    24fa:	91 81       	ldd	r25, Z+1	; 0x01
    24fc:	bc 01       	movw	r22, r24
    24fe:	80 e0       	ldi	r24, 0x00	; 0
    2500:	90 e0       	ldi	r25, 0x00	; 0
    2502:	42 e0       	ldi	r20, 0x02	; 2
    2504:	50 e0       	ldi	r21, 0x00	; 0
    2506:	a4 0e       	add	r10, r20
    2508:	b5 1e       	adc	r11, r21
    250a:	a1 01       	movw	r20, r2
    250c:	0e 94 53 13 	call	0x26a6	; 0x26a6 <__ultoa_invert>
    2510:	d8 2e       	mov	r13, r24
    2512:	d2 18       	sub	r13, r2
    2514:	8f e7       	ldi	r24, 0x7F	; 127
    2516:	f8 2e       	mov	r15, r24
    2518:	f1 22       	and	r15, r17
    251a:	f6 fe       	sbrs	r15, 6
    251c:	0b c0       	rjmp	.+22     	; 0x2534 <vfprintf+0x2cc>
    251e:	5e ef       	ldi	r21, 0xFE	; 254
    2520:	f5 22       	and	r15, r21
    2522:	d9 14       	cp	r13, r9
    2524:	38 f4       	brcc	.+14     	; 0x2534 <vfprintf+0x2cc>
    2526:	f4 fe       	sbrs	r15, 4
    2528:	07 c0       	rjmp	.+14     	; 0x2538 <vfprintf+0x2d0>
    252a:	f2 fc       	sbrc	r15, 2
    252c:	05 c0       	rjmp	.+10     	; 0x2538 <vfprintf+0x2d0>
    252e:	8f ee       	ldi	r24, 0xEF	; 239
    2530:	f8 22       	and	r15, r24
    2532:	02 c0       	rjmp	.+4      	; 0x2538 <vfprintf+0x2d0>
    2534:	1d 2d       	mov	r17, r13
    2536:	01 c0       	rjmp	.+2      	; 0x253a <vfprintf+0x2d2>
    2538:	19 2d       	mov	r17, r9
    253a:	f4 fe       	sbrs	r15, 4
    253c:	0d c0       	rjmp	.+26     	; 0x2558 <vfprintf+0x2f0>
    253e:	fe 01       	movw	r30, r28
    2540:	ed 0d       	add	r30, r13
    2542:	f1 1d       	adc	r31, r1
    2544:	80 81       	ld	r24, Z
    2546:	80 33       	cpi	r24, 0x30	; 48
    2548:	19 f4       	brne	.+6      	; 0x2550 <vfprintf+0x2e8>
    254a:	99 ee       	ldi	r25, 0xE9	; 233
    254c:	f9 22       	and	r15, r25
    254e:	08 c0       	rjmp	.+16     	; 0x2560 <vfprintf+0x2f8>
    2550:	1f 5f       	subi	r17, 0xFF	; 255
    2552:	f2 fe       	sbrs	r15, 2
    2554:	05 c0       	rjmp	.+10     	; 0x2560 <vfprintf+0x2f8>
    2556:	03 c0       	rjmp	.+6      	; 0x255e <vfprintf+0x2f6>
    2558:	8f 2d       	mov	r24, r15
    255a:	86 78       	andi	r24, 0x86	; 134
    255c:	09 f0       	breq	.+2      	; 0x2560 <vfprintf+0x2f8>
    255e:	1f 5f       	subi	r17, 0xFF	; 255
    2560:	0f 2d       	mov	r16, r15
    2562:	f3 fc       	sbrc	r15, 3
    2564:	14 c0       	rjmp	.+40     	; 0x258e <vfprintf+0x326>
    2566:	f0 fe       	sbrs	r15, 0
    2568:	0f c0       	rjmp	.+30     	; 0x2588 <vfprintf+0x320>
    256a:	1e 15       	cp	r17, r14
    256c:	10 f0       	brcs	.+4      	; 0x2572 <vfprintf+0x30a>
    256e:	9d 2c       	mov	r9, r13
    2570:	0b c0       	rjmp	.+22     	; 0x2588 <vfprintf+0x320>
    2572:	9d 2c       	mov	r9, r13
    2574:	9e 0c       	add	r9, r14
    2576:	91 1a       	sub	r9, r17
    2578:	1e 2d       	mov	r17, r14
    257a:	06 c0       	rjmp	.+12     	; 0x2588 <vfprintf+0x320>
    257c:	80 e2       	ldi	r24, 0x20	; 32
    257e:	90 e0       	ldi	r25, 0x00	; 0
    2580:	b3 01       	movw	r22, r6
    2582:	0e 94 27 13 	call	0x264e	; 0x264e <fputc>
    2586:	1f 5f       	subi	r17, 0xFF	; 255
    2588:	1e 15       	cp	r17, r14
    258a:	c0 f3       	brcs	.-16     	; 0x257c <vfprintf+0x314>
    258c:	04 c0       	rjmp	.+8      	; 0x2596 <vfprintf+0x32e>
    258e:	1e 15       	cp	r17, r14
    2590:	10 f4       	brcc	.+4      	; 0x2596 <vfprintf+0x32e>
    2592:	e1 1a       	sub	r14, r17
    2594:	01 c0       	rjmp	.+2      	; 0x2598 <vfprintf+0x330>
    2596:	ee 24       	eor	r14, r14
    2598:	04 ff       	sbrs	r16, 4
    259a:	0f c0       	rjmp	.+30     	; 0x25ba <vfprintf+0x352>
    259c:	80 e3       	ldi	r24, 0x30	; 48
    259e:	90 e0       	ldi	r25, 0x00	; 0
    25a0:	b3 01       	movw	r22, r6
    25a2:	0e 94 27 13 	call	0x264e	; 0x264e <fputc>
    25a6:	02 ff       	sbrs	r16, 2
    25a8:	1d c0       	rjmp	.+58     	; 0x25e4 <vfprintf+0x37c>
    25aa:	01 fd       	sbrc	r16, 1
    25ac:	03 c0       	rjmp	.+6      	; 0x25b4 <vfprintf+0x34c>
    25ae:	88 e7       	ldi	r24, 0x78	; 120
    25b0:	90 e0       	ldi	r25, 0x00	; 0
    25b2:	0e c0       	rjmp	.+28     	; 0x25d0 <vfprintf+0x368>
    25b4:	88 e5       	ldi	r24, 0x58	; 88
    25b6:	90 e0       	ldi	r25, 0x00	; 0
    25b8:	0b c0       	rjmp	.+22     	; 0x25d0 <vfprintf+0x368>
    25ba:	80 2f       	mov	r24, r16
    25bc:	86 78       	andi	r24, 0x86	; 134
    25be:	91 f0       	breq	.+36     	; 0x25e4 <vfprintf+0x37c>
    25c0:	01 ff       	sbrs	r16, 1
    25c2:	02 c0       	rjmp	.+4      	; 0x25c8 <vfprintf+0x360>
    25c4:	8b e2       	ldi	r24, 0x2B	; 43
    25c6:	01 c0       	rjmp	.+2      	; 0x25ca <vfprintf+0x362>
    25c8:	80 e2       	ldi	r24, 0x20	; 32
    25ca:	f7 fc       	sbrc	r15, 7
    25cc:	8d e2       	ldi	r24, 0x2D	; 45
    25ce:	90 e0       	ldi	r25, 0x00	; 0
    25d0:	b3 01       	movw	r22, r6
    25d2:	0e 94 27 13 	call	0x264e	; 0x264e <fputc>
    25d6:	06 c0       	rjmp	.+12     	; 0x25e4 <vfprintf+0x37c>
    25d8:	80 e3       	ldi	r24, 0x30	; 48
    25da:	90 e0       	ldi	r25, 0x00	; 0
    25dc:	b3 01       	movw	r22, r6
    25de:	0e 94 27 13 	call	0x264e	; 0x264e <fputc>
    25e2:	9a 94       	dec	r9
    25e4:	d9 14       	cp	r13, r9
    25e6:	c0 f3       	brcs	.-16     	; 0x25d8 <vfprintf+0x370>
    25e8:	da 94       	dec	r13
    25ea:	f1 01       	movw	r30, r2
    25ec:	ed 0d       	add	r30, r13
    25ee:	f1 1d       	adc	r31, r1
    25f0:	80 81       	ld	r24, Z
    25f2:	90 e0       	ldi	r25, 0x00	; 0
    25f4:	b3 01       	movw	r22, r6
    25f6:	0e 94 27 13 	call	0x264e	; 0x264e <fputc>
    25fa:	dd 20       	and	r13, r13
    25fc:	a9 f7       	brne	.-22     	; 0x25e8 <vfprintf+0x380>
    25fe:	06 c0       	rjmp	.+12     	; 0x260c <vfprintf+0x3a4>
    2600:	80 e2       	ldi	r24, 0x20	; 32
    2602:	90 e0       	ldi	r25, 0x00	; 0
    2604:	b3 01       	movw	r22, r6
    2606:	0e 94 27 13 	call	0x264e	; 0x264e <fputc>
    260a:	ea 94       	dec	r14
    260c:	ee 20       	and	r14, r14
    260e:	c1 f7       	brne	.-16     	; 0x2600 <vfprintf+0x398>
    2610:	43 ce       	rjmp	.-890    	; 0x2298 <vfprintf+0x30>
    2612:	f3 01       	movw	r30, r6
    2614:	66 81       	ldd	r22, Z+6	; 0x06
    2616:	77 81       	ldd	r23, Z+7	; 0x07
    2618:	cb 01       	movw	r24, r22
    261a:	2b 96       	adiw	r28, 0x0b	; 11
    261c:	e2 e1       	ldi	r30, 0x12	; 18
    261e:	0c 94 cd 13 	jmp	0x279a	; 0x279a <__epilogue_restores__>

00002622 <strnlen_P>:
    2622:	fc 01       	movw	r30, r24
    2624:	05 90       	lpm	r0, Z+
    2626:	61 50       	subi	r22, 0x01	; 1
    2628:	70 40       	sbci	r23, 0x00	; 0
    262a:	01 10       	cpse	r0, r1
    262c:	d8 f7       	brcc	.-10     	; 0x2624 <strnlen_P+0x2>
    262e:	80 95       	com	r24
    2630:	90 95       	com	r25
    2632:	8e 0f       	add	r24, r30
    2634:	9f 1f       	adc	r25, r31
    2636:	08 95       	ret

00002638 <strnlen>:
    2638:	fc 01       	movw	r30, r24
    263a:	61 50       	subi	r22, 0x01	; 1
    263c:	70 40       	sbci	r23, 0x00	; 0
    263e:	01 90       	ld	r0, Z+
    2640:	01 10       	cpse	r0, r1
    2642:	d8 f7       	brcc	.-10     	; 0x263a <strnlen+0x2>
    2644:	80 95       	com	r24
    2646:	90 95       	com	r25
    2648:	8e 0f       	add	r24, r30
    264a:	9f 1f       	adc	r25, r31
    264c:	08 95       	ret

0000264e <fputc>:
    264e:	0f 93       	push	r16
    2650:	1f 93       	push	r17
    2652:	cf 93       	push	r28
    2654:	df 93       	push	r29
    2656:	8c 01       	movw	r16, r24
    2658:	eb 01       	movw	r28, r22
    265a:	8b 81       	ldd	r24, Y+3	; 0x03
    265c:	81 ff       	sbrs	r24, 1
    265e:	1b c0       	rjmp	.+54     	; 0x2696 <fputc+0x48>
    2660:	82 ff       	sbrs	r24, 2
    2662:	0d c0       	rjmp	.+26     	; 0x267e <fputc+0x30>
    2664:	2e 81       	ldd	r18, Y+6	; 0x06
    2666:	3f 81       	ldd	r19, Y+7	; 0x07
    2668:	8c 81       	ldd	r24, Y+4	; 0x04
    266a:	9d 81       	ldd	r25, Y+5	; 0x05
    266c:	28 17       	cp	r18, r24
    266e:	39 07       	cpc	r19, r25
    2670:	64 f4       	brge	.+24     	; 0x268a <fputc+0x3c>
    2672:	e8 81       	ld	r30, Y
    2674:	f9 81       	ldd	r31, Y+1	; 0x01
    2676:	01 93       	st	Z+, r16
    2678:	f9 83       	std	Y+1, r31	; 0x01
    267a:	e8 83       	st	Y, r30
    267c:	06 c0       	rjmp	.+12     	; 0x268a <fputc+0x3c>
    267e:	e8 85       	ldd	r30, Y+8	; 0x08
    2680:	f9 85       	ldd	r31, Y+9	; 0x09
    2682:	80 2f       	mov	r24, r16
    2684:	09 95       	icall
    2686:	89 2b       	or	r24, r25
    2688:	31 f4       	brne	.+12     	; 0x2696 <fputc+0x48>
    268a:	8e 81       	ldd	r24, Y+6	; 0x06
    268c:	9f 81       	ldd	r25, Y+7	; 0x07
    268e:	01 96       	adiw	r24, 0x01	; 1
    2690:	9f 83       	std	Y+7, r25	; 0x07
    2692:	8e 83       	std	Y+6, r24	; 0x06
    2694:	02 c0       	rjmp	.+4      	; 0x269a <fputc+0x4c>
    2696:	0f ef       	ldi	r16, 0xFF	; 255
    2698:	1f ef       	ldi	r17, 0xFF	; 255
    269a:	c8 01       	movw	r24, r16
    269c:	df 91       	pop	r29
    269e:	cf 91       	pop	r28
    26a0:	1f 91       	pop	r17
    26a2:	0f 91       	pop	r16
    26a4:	08 95       	ret

000026a6 <__ultoa_invert>:
    26a6:	fa 01       	movw	r30, r20
    26a8:	aa 27       	eor	r26, r26
    26aa:	28 30       	cpi	r18, 0x08	; 8
    26ac:	51 f1       	breq	.+84     	; 0x2702 <__ultoa_invert+0x5c>
    26ae:	20 31       	cpi	r18, 0x10	; 16
    26b0:	81 f1       	breq	.+96     	; 0x2712 <__ultoa_invert+0x6c>
    26b2:	e8 94       	clt
    26b4:	6f 93       	push	r22
    26b6:	6e 7f       	andi	r22, 0xFE	; 254
    26b8:	6e 5f       	subi	r22, 0xFE	; 254
    26ba:	7f 4f       	sbci	r23, 0xFF	; 255
    26bc:	8f 4f       	sbci	r24, 0xFF	; 255
    26be:	9f 4f       	sbci	r25, 0xFF	; 255
    26c0:	af 4f       	sbci	r26, 0xFF	; 255
    26c2:	b1 e0       	ldi	r27, 0x01	; 1
    26c4:	3e d0       	rcall	.+124    	; 0x2742 <__ultoa_invert+0x9c>
    26c6:	b4 e0       	ldi	r27, 0x04	; 4
    26c8:	3c d0       	rcall	.+120    	; 0x2742 <__ultoa_invert+0x9c>
    26ca:	67 0f       	add	r22, r23
    26cc:	78 1f       	adc	r23, r24
    26ce:	89 1f       	adc	r24, r25
    26d0:	9a 1f       	adc	r25, r26
    26d2:	a1 1d       	adc	r26, r1
    26d4:	68 0f       	add	r22, r24
    26d6:	79 1f       	adc	r23, r25
    26d8:	8a 1f       	adc	r24, r26
    26da:	91 1d       	adc	r25, r1
    26dc:	a1 1d       	adc	r26, r1
    26de:	6a 0f       	add	r22, r26
    26e0:	71 1d       	adc	r23, r1
    26e2:	81 1d       	adc	r24, r1
    26e4:	91 1d       	adc	r25, r1
    26e6:	a1 1d       	adc	r26, r1
    26e8:	20 d0       	rcall	.+64     	; 0x272a <__ultoa_invert+0x84>
    26ea:	09 f4       	brne	.+2      	; 0x26ee <__ultoa_invert+0x48>
    26ec:	68 94       	set
    26ee:	3f 91       	pop	r19
    26f0:	2a e0       	ldi	r18, 0x0A	; 10
    26f2:	26 9f       	mul	r18, r22
    26f4:	11 24       	eor	r1, r1
    26f6:	30 19       	sub	r19, r0
    26f8:	30 5d       	subi	r19, 0xD0	; 208
    26fa:	31 93       	st	Z+, r19
    26fc:	de f6       	brtc	.-74     	; 0x26b4 <__ultoa_invert+0xe>
    26fe:	cf 01       	movw	r24, r30
    2700:	08 95       	ret
    2702:	46 2f       	mov	r20, r22
    2704:	47 70       	andi	r20, 0x07	; 7
    2706:	40 5d       	subi	r20, 0xD0	; 208
    2708:	41 93       	st	Z+, r20
    270a:	b3 e0       	ldi	r27, 0x03	; 3
    270c:	0f d0       	rcall	.+30     	; 0x272c <__ultoa_invert+0x86>
    270e:	c9 f7       	brne	.-14     	; 0x2702 <__ultoa_invert+0x5c>
    2710:	f6 cf       	rjmp	.-20     	; 0x26fe <__ultoa_invert+0x58>
    2712:	46 2f       	mov	r20, r22
    2714:	4f 70       	andi	r20, 0x0F	; 15
    2716:	40 5d       	subi	r20, 0xD0	; 208
    2718:	4a 33       	cpi	r20, 0x3A	; 58
    271a:	18 f0       	brcs	.+6      	; 0x2722 <__ultoa_invert+0x7c>
    271c:	49 5d       	subi	r20, 0xD9	; 217
    271e:	31 fd       	sbrc	r19, 1
    2720:	40 52       	subi	r20, 0x20	; 32
    2722:	41 93       	st	Z+, r20
    2724:	02 d0       	rcall	.+4      	; 0x272a <__ultoa_invert+0x84>
    2726:	a9 f7       	brne	.-22     	; 0x2712 <__ultoa_invert+0x6c>
    2728:	ea cf       	rjmp	.-44     	; 0x26fe <__ultoa_invert+0x58>
    272a:	b4 e0       	ldi	r27, 0x04	; 4
    272c:	a6 95       	lsr	r26
    272e:	97 95       	ror	r25
    2730:	87 95       	ror	r24
    2732:	77 95       	ror	r23
    2734:	67 95       	ror	r22
    2736:	ba 95       	dec	r27
    2738:	c9 f7       	brne	.-14     	; 0x272c <__ultoa_invert+0x86>
    273a:	00 97       	sbiw	r24, 0x00	; 0
    273c:	61 05       	cpc	r22, r1
    273e:	71 05       	cpc	r23, r1
    2740:	08 95       	ret
    2742:	9b 01       	movw	r18, r22
    2744:	ac 01       	movw	r20, r24
    2746:	0a 2e       	mov	r0, r26
    2748:	06 94       	lsr	r0
    274a:	57 95       	ror	r21
    274c:	47 95       	ror	r20
    274e:	37 95       	ror	r19
    2750:	27 95       	ror	r18
    2752:	ba 95       	dec	r27
    2754:	c9 f7       	brne	.-14     	; 0x2748 <__ultoa_invert+0xa2>
    2756:	62 0f       	add	r22, r18
    2758:	73 1f       	adc	r23, r19
    275a:	84 1f       	adc	r24, r20
    275c:	95 1f       	adc	r25, r21
    275e:	a0 1d       	adc	r26, r0
    2760:	08 95       	ret

00002762 <__prologue_saves__>:
    2762:	2f 92       	push	r2
    2764:	3f 92       	push	r3
    2766:	4f 92       	push	r4
    2768:	5f 92       	push	r5
    276a:	6f 92       	push	r6
    276c:	7f 92       	push	r7
    276e:	8f 92       	push	r8
    2770:	9f 92       	push	r9
    2772:	af 92       	push	r10
    2774:	bf 92       	push	r11
    2776:	cf 92       	push	r12
    2778:	df 92       	push	r13
    277a:	ef 92       	push	r14
    277c:	ff 92       	push	r15
    277e:	0f 93       	push	r16
    2780:	1f 93       	push	r17
    2782:	cf 93       	push	r28
    2784:	df 93       	push	r29
    2786:	cd b7       	in	r28, 0x3d	; 61
    2788:	de b7       	in	r29, 0x3e	; 62
    278a:	ca 1b       	sub	r28, r26
    278c:	db 0b       	sbc	r29, r27
    278e:	0f b6       	in	r0, 0x3f	; 63
    2790:	f8 94       	cli
    2792:	de bf       	out	0x3e, r29	; 62
    2794:	0f be       	out	0x3f, r0	; 63
    2796:	cd bf       	out	0x3d, r28	; 61
    2798:	09 94       	ijmp

0000279a <__epilogue_restores__>:
    279a:	2a 88       	ldd	r2, Y+18	; 0x12
    279c:	39 88       	ldd	r3, Y+17	; 0x11
    279e:	48 88       	ldd	r4, Y+16	; 0x10
    27a0:	5f 84       	ldd	r5, Y+15	; 0x0f
    27a2:	6e 84       	ldd	r6, Y+14	; 0x0e
    27a4:	7d 84       	ldd	r7, Y+13	; 0x0d
    27a6:	8c 84       	ldd	r8, Y+12	; 0x0c
    27a8:	9b 84       	ldd	r9, Y+11	; 0x0b
    27aa:	aa 84       	ldd	r10, Y+10	; 0x0a
    27ac:	b9 84       	ldd	r11, Y+9	; 0x09
    27ae:	c8 84       	ldd	r12, Y+8	; 0x08
    27b0:	df 80       	ldd	r13, Y+7	; 0x07
    27b2:	ee 80       	ldd	r14, Y+6	; 0x06
    27b4:	fd 80       	ldd	r15, Y+5	; 0x05
    27b6:	0c 81       	ldd	r16, Y+4	; 0x04
    27b8:	1b 81       	ldd	r17, Y+3	; 0x03
    27ba:	aa 81       	ldd	r26, Y+2	; 0x02
    27bc:	b9 81       	ldd	r27, Y+1	; 0x01
    27be:	ce 0f       	add	r28, r30
    27c0:	d1 1d       	adc	r29, r1
    27c2:	0f b6       	in	r0, 0x3f	; 63
    27c4:	f8 94       	cli
    27c6:	de bf       	out	0x3e, r29	; 62
    27c8:	0f be       	out	0x3f, r0	; 63
    27ca:	cd bf       	out	0x3d, r28	; 61
    27cc:	ed 01       	movw	r28, r26
    27ce:	08 95       	ret

000027d0 <_exit>:
    27d0:	f8 94       	cli

000027d2 <__stop_program>:
    27d2:	ff cf       	rjmp	.-2      	; 0x27d2 <__stop_program>
